
Allocating common symbols
Common symbol       size              file

ConvData1           0x2               ./selftest.o
LIS302DL_InitStruct
                    0x5               ./main.o
TimingDelay         0x4               ./main.o
Y_Offset            0x1               ./main.o
LIS302DL_FilterStruct
                    0x3               ./main.o
ADC_InitStructure   0x18              ./selftest.o
X_Offset            0x1               ./main.o
USB_OTG_dev         0x5f0             ./main.o
Buffer              0x6               ./main.o
RCC_Clocks          0x10              ./selftest.o
ADC_CommonInitStructure
                    0x10              ./selftest.o
ConvData2           0x2               ./selftest.o

Memory Configuration

Name             Origin             Length             Attributes
FLASH            0x0000000008000000 0x0000000000100000 xr
RAM              0x0000000020000000 0x0000000000030000 xrw
MEMORY_B1        0x0000000060000000 0x0000000000000000 xr
*default*        0x0000000000000000 0xffffffffffffffff

Linker script and memory map

LOAD ./stm_src/startup_stm32f4xx.o
LOAD ./stm_src/system_stm32f4xx.o
LOAD ./main.o
LOAD ./selftest.o
LOAD ./stm32f4xx_it.o
LOAD ./usb_bsp.o
LOAD ./usbd_desc.o
LOAD ./usbd_usr.o
START GROUP
LOAD /Users/josefvanniekerk/Developer/Cross/arm-cs-tools-2012.03-56-e3f4013-20130305/lib/gcc/arm-none-eabi/4.6.3/thumb2/libgcc.a
LOAD /Users/josefvanniekerk/Developer/Cross/arm-cs-tools-2012.03-56-e3f4013-20130305/lib/gcc/arm-none-eabi/4.6.3/../../../../arm-none-eabi/lib/thumb2/libc.a
END GROUP
                0x0000000020020000                _estack = 0x20020000
                0x0000000000000000                _Min_Heap_Size = 0x0
                0x0000000000000400                _Min_Stack_Size = 0x400

.isr_vector     0x0000000008000000      0x188
                0x0000000008000000                . = ALIGN (0x4)
 *(.isr_vector)
 .isr_vector    0x0000000008000000      0x188 ./stm_src/startup_stm32f4xx.o
                0x0000000008000000                g_pfnVectors
                0x0000000008000188                . = ALIGN (0x4)

.text           0x0000000008000188     0x266c
                0x0000000008000188                . = ALIGN (0x4)
 *(.text)
 .text          0x0000000008000188       0x14 ./stm_src/startup_stm32f4xx.o
 .text          0x000000000800019c      0x38c ./stm_src/system_stm32f4xx.o
                0x000000000800019c                SystemInit
                0x0000000008000230                SystemCoreClockUpdate
 .text          0x0000000008000528      0x840 ./main.o
                0x00000000080005e8                main
                0x0000000008000cb0                Delay
                0x0000000008000ce0                TimingDelay_Decrement
                0x0000000008000d10                Fail_Handler
                0x0000000008000d44                LIS302DL_TIMEOUT_UserCallback
 .text          0x0000000008000d68      0xfd8 ./selftest.o
                0x0000000008000d68                Accelerometer_MEMS_Test
                0x0000000008000ee0                USB_Test
                0x00000000080014e8                Audio_Test
                0x0000000008001a60                Microphone_MEMS_Test
                0x0000000008001bd4                EVAL_AUDIO_TransferComplete_CallBack
                0x0000000008001be8                EVAL_AUDIO_HalfTransfer_CallBack
                0x0000000008001bfc                EVAL_AUDIO_GetSampleCallBack
                0x0000000008001d2c                EVAL_AUDIO_Error_CallBack
                0x0000000008001d38                Codec_TIMEOUT_UserCallback
 .text          0x0000000008001d40      0x49c ./stm32f4xx_it.o
                0x0000000008001d40                NMI_Handler
                0x0000000008001d4c                HardFault_Handler
                0x0000000008001d54                MemManage_Handler
                0x0000000008001d5c                BusFault_Handler
                0x0000000008001d64                UsageFault_Handler
                0x0000000008001d6c                SVC_Handler
                0x0000000008001d78                DebugMon_Handler
                0x0000000008001d84                PendSV_Handler
                0x0000000008001d90                SysTick_Handler
                0x0000000008002084                EXTI0_IRQHandler
                0x00000000080020a0                OTG_FS_WKUP_IRQHandler
                0x00000000080020e4                OTG_FS_IRQHandler
 .text          0x00000000080021dc      0x1c8 ./usb_bsp.o
                0x00000000080021dc                USB_OTG_BSP_Init
                0x00000000080022f0                USB_OTG_BSP_EnableInterrupt
                0x000000000800232c                USB_OTG_BSP_uDelay
                0x0000000008002384                USB_OTG_BSP_mDelay
 .text          0x00000000080023a4      0x1d4 ./usbd_desc.o
                0x00000000080023a4                USBD_USR_DeviceDescriptor
                0x00000000080023cc                USBD_USR_LangIDStrDescriptor
                0x00000000080023f4                USBD_USR_ProductStrDescriptor
                0x0000000008002448                USBD_USR_ManufacturerStrDescriptor
                0x000000000800247c                USBD_USR_SerialStrDescriptor
                0x00000000080024d0                USBD_USR_ConfigStrDescriptor
                0x0000000008002524                USBD_USR_InterfaceStrDescriptor
 .text          0x0000000008002578      0x154 ./usbd_usr.o
                0x0000000008002638                USBD_USR_Init
                0x0000000008002668                USBD_USR_DeviceReset
                0x0000000008002690                USBD_USR_DeviceConfigured
                0x000000000800269c                USBD_USR_DeviceConnected
                0x00000000080026a8                USBD_USR_DeviceDisconnected
                0x00000000080026b4                USBD_USR_DeviceSuspended
                0x00000000080026c0                USBD_USR_DeviceResumed
 *(.text*)
 .text.Reset_Handler
                0x00000000080026cc       0x4c ./stm_src/startup_stm32f4xx.o
                0x00000000080026cc                Reset_Handler
 .text.Default_Handler
                0x0000000008002718        0x4 ./stm_src/startup_stm32f4xx.o
                0x0000000008002718                DMA1_Stream3_IRQHandler
                0x0000000008002718                HASH_RNG_IRQHandler
                0x0000000008002718                EXTI2_IRQHandler
                0x0000000008002718                TIM8_CC_IRQHandler
                0x0000000008002718                TIM1_CC_IRQHandler
                0x0000000008002718                DMA2_Stream5_IRQHandler
                0x0000000008002718                DMA1_Stream5_IRQHandler
                0x0000000008002718                PVD_IRQHandler
                0x0000000008002718                SDIO_IRQHandler
                0x0000000008002718                TAMP_STAMP_IRQHandler
                0x0000000008002718                CAN2_RX1_IRQHandler
                0x0000000008002718                EXTI3_IRQHandler
                0x0000000008002718                TIM8_TRG_COM_TIM14_IRQHandler
                0x0000000008002718                TIM1_UP_TIM10_IRQHandler
                0x0000000008002718                TIM8_UP_TIM13_IRQHandler
                0x0000000008002718                I2C3_ER_IRQHandler
                0x0000000008002718                I2C2_EV_IRQHandler
                0x0000000008002718                DMA1_Stream2_IRQHandler
                0x0000000008002718                CAN1_RX0_IRQHandler
                0x0000000008002718                FPU_IRQHandler
                0x0000000008002718                OTG_HS_WKUP_IRQHandler
                0x0000000008002718                CAN2_SCE_IRQHandler
                0x0000000008002718                DMA2_Stream2_IRQHandler
                0x0000000008002718                SPI1_IRQHandler
                0x0000000008002718                TIM6_DAC_IRQHandler
                0x0000000008002718                TIM1_BRK_TIM9_IRQHandler
                0x0000000008002718                DCMI_IRQHandler
                0x0000000008002718                CAN2_RX0_IRQHandler
                0x0000000008002718                DMA2_Stream3_IRQHandler
                0x0000000008002718                USART6_IRQHandler
                0x0000000008002718                USART3_IRQHandler
                0x0000000008002718                CRYP_IRQHandler
                0x0000000008002718                CAN1_RX1_IRQHandler
                0x0000000008002718                UART5_IRQHandler
                0x0000000008002718                DMA2_Stream0_IRQHandler
                0x0000000008002718                TIM4_IRQHandler
                0x0000000008002718                I2C1_EV_IRQHandler
                0x0000000008002718                DMA1_Stream6_IRQHandler
                0x0000000008002718                DMA1_Stream1_IRQHandler
                0x0000000008002718                UART4_IRQHandler
                0x0000000008002718                TIM3_IRQHandler
                0x0000000008002718                RCC_IRQHandler
                0x0000000008002718                TIM8_BRK_TIM12_IRQHandler
                0x0000000008002718                Default_Handler
                0x0000000008002718                EXTI15_10_IRQHandler
                0x0000000008002718                ADC_IRQHandler
                0x0000000008002718                DMA1_Stream7_IRQHandler
                0x0000000008002718                TIM7_IRQHandler
                0x0000000008002718                CAN2_TX_IRQHandler
                0x0000000008002718                TIM5_IRQHandler
                0x0000000008002718                DMA2_Stream7_IRQHandler
                0x0000000008002718                I2C3_EV_IRQHandler
                0x0000000008002718                EXTI9_5_IRQHandler
                0x0000000008002718                RTC_WKUP_IRQHandler
                0x0000000008002718                ETH_WKUP_IRQHandler
                0x0000000008002718                SPI2_IRQHandler
                0x0000000008002718                OTG_HS_EP1_IN_IRQHandler
                0x0000000008002718                DMA1_Stream0_IRQHandler
                0x0000000008002718                CAN1_TX_IRQHandler
                0x0000000008002718                EXTI4_IRQHandler
                0x0000000008002718                FSMC_IRQHandler
                0x0000000008002718                ETH_IRQHandler
                0x0000000008002718                OTG_HS_EP1_OUT_IRQHandler
                0x0000000008002718                WWDG_IRQHandler
                0x0000000008002718                TIM2_IRQHandler
                0x0000000008002718                TIM1_TRG_COM_TIM11_IRQHandler
                0x0000000008002718                OTG_HS_IRQHandler
                0x0000000008002718                EXTI1_IRQHandler
                0x0000000008002718                USART2_IRQHandler
                0x0000000008002718                I2C2_ER_IRQHandler
                0x0000000008002718                DMA2_Stream1_IRQHandler
                0x0000000008002718                CAN1_SCE_IRQHandler
                0x0000000008002718                FLASH_IRQHandler
                0x0000000008002718                DMA2_Stream4_IRQHandler
                0x0000000008002718                USART1_IRQHandler
                0x0000000008002718                SPI3_IRQHandler
                0x0000000008002718                DMA1_Stream4_IRQHandler
                0x0000000008002718                I2C1_ER_IRQHandler
                0x0000000008002718                DMA2_Stream6_IRQHandler
                0x0000000008002718                RTC_Alarm_IRQHandler
 *(.rodata)
 .rodata        0x000000000800271c       0x60 ./selftest.o
                0x000000000800271c                sinebuf
 .rodata        0x000000000800277c       0x78 ./usbd_desc.o
 *(.rodata*)
 *(.glue_7)
 .glue_7        0x0000000000000000        0x0 linker stubs
 *(.glue_7t)
 .glue_7t       0x0000000000000000        0x0 linker stubs
 *(.eh_frame)
 *(.init)
 *(.fini)
                0x00000000080027f4                . = ALIGN (0x4)
                0x00000000080027f4                _etext = .

.vfp11_veneer   0x00000000080027f4        0x0
 .vfp11_veneer  0x0000000000000000        0x0 linker stubs

.v4_bx          0x00000000080027f4        0x0
 .v4_bx         0x0000000000000000        0x0 linker stubs

.iplt           0x00000000080027f4        0x0
 .iplt          0x0000000000000000        0x0 ./stm_src/startup_stm32f4xx.o

.rel.dyn        0x00000000080027f4        0x0
 .rel.iplt      0x0000000000000000        0x0 ./stm_src/startup_stm32f4xx.o

.ARM.extab
 *(.ARM.extab* .gnu.linkonce.armextab.*)

.ARM            0x00000000080027f4        0x0
                0x00000000080027f4                __exidx_start = .
 *(.ARM.exidx*)
                0x00000000080027f4                __exidx_end = .

.preinit_array  0x00000000080027f4        0x0
                0x00000000080027f4                PROVIDE (__preinit_array_start, .)
 *(.preinit_array*)
                0x00000000080027f4                PROVIDE (__preinit_array_end, .)

.init_array     0x00000000080027f4        0x0
                0x00000000080027f4                PROVIDE (__init_array_start, .)
 *(SORT(.init_array.*))
 *(.init_array*)
                0x00000000080027f4                PROVIDE (__init_array_end, .)

.fini_array     0x00000000080027f4        0x0
                0x00000000080027f4                PROVIDE (__fini_array_start, .)
 *(.fini_array*)
 *(SORT(.fini_array.*))
                0x00000000080027f4                PROVIDE (__fini_array_end, .)
                0x00000000080027f4                _sidata = .

.data           0x0000000020000000       0x78 load address 0x00000000080027f4
                0x0000000020000000                . = ALIGN (0x4)
                0x0000000020000000                _sdata = .
 *(.data)
 .data          0x0000000020000000        0x0 ./stm_src/startup_stm32f4xx.o
 .data          0x0000000020000000       0x14 ./stm_src/system_stm32f4xx.o
                0x0000000020000000                SystemCoreClock
                0x0000000020000004                AHBPrescTable
 .data          0x0000000020000014        0x0 ./main.o
 .data          0x0000000020000014        0x8 ./selftest.o
                0x0000000020000014                ADC_Channel
                0x0000000020000018                GPIO_Pin
                0x000000002000001a                count1
 .data          0x000000002000001c        0x0 ./stm32f4xx_it.o
 .data          0x000000002000001c        0x0 ./usb_bsp.o
 .data          0x000000002000001c       0x40 ./usbd_desc.o
                0x000000002000001c                USR_desc
                0x0000000020000038                USBD_DeviceDesc
                0x000000002000004c                USBD_DeviceQualifierDesc
                0x0000000020000058                USBD_LangIDDesc
 .data          0x000000002000005c       0x1c ./usbd_usr.o
                0x000000002000005c                USR_cb
 *(.data*)
                0x0000000020000078                . = ALIGN (0x4)
                0x0000000020000078                _edata = .

.igot.plt       0x0000000020000078        0x0 load address 0x000000000800286c
 .igot.plt      0x0000000000000000        0x0 ./stm_src/startup_stm32f4xx.o
                0x0000000020000078                . = ALIGN (0x4)

.bss            0x0000000020000078      0x668 load address 0x000000000800286c
                0x0000000020000078                _sbss = .
                0x0000000020000078                __bss_start__ = _sbss
 *(.bss)
 .bss           0x0000000020000078        0x0 ./stm_src/startup_stm32f4xx.o
 .bss           0x0000000020000078        0x0 ./stm_src/system_stm32f4xx.o
 .bss           0x0000000020000078        0x6 ./main.o
                0x0000000020000078                PrescalerValue
                0x000000002000007a                DemoEnterCondition
                0x000000002000007b                UserButtonPressed
                0x000000002000007c                Z_Offset
 .bss           0x000000002000007e        0xc ./selftest.o
                0x000000002000007e                counter0
                0x0000000020000080                counter1
                0x0000000020000082                Idx
                0x0000000020000084                DACTest
                0x0000000020000086                count
                0x0000000020000088                Left_Right
 *fill*         0x000000002000008a        0x2 00
 .bss           0x000000002000008c        0x8 ./stm32f4xx_it.o
                0x000000002000008c                Counter
                0x000000002000008d                TempAcceleration
 .bss           0x0000000020000094        0x0 ./usb_bsp.o
 .bss           0x0000000020000094        0x0 ./usbd_desc.o
 .bss           0x0000000020000094        0x0 ./usbd_usr.o
 *(.bss*)
 *(COMMON)
 COMMON         0x0000000020000094      0x60a ./main.o
                0x0000000020000094                LIS302DL_InitStruct
                0x000000002000009c                TimingDelay
                0x00000000200000a0                Y_Offset
                0x00000000200000a4                LIS302DL_FilterStruct
                0x00000000200000a7                X_Offset
                0x00000000200000a8                USB_OTG_dev
                0x0000000020000698                Buffer
 *fill*         0x000000002000069e        0x2 00
 COMMON         0x00000000200006a0       0x3e ./selftest.o
                0x00000000200006a0                ConvData1
                0x00000000200006a4                ADC_InitStructure
                0x00000000200006bc                RCC_Clocks
                0x00000000200006cc                ADC_CommonInitStructure
                0x00000000200006dc                ConvData2
                0x00000000200006e0                . = ALIGN (0x4)
 *fill*         0x00000000200006de        0x2 00
                0x00000000200006e0                _ebss = .
                0x00000000200006e0                __bss_end__ = _ebss

._user_heap_stack
                0x00000000200006e0      0x400 load address 0x0000000008002ed4
                0x00000000200006e0                . = ALIGN (0x4)
                0x00000000200006e0                PROVIDE (end, .)
                0x00000000200006e0                PROVIDE (_end, .)
                0x00000000200006e0                . = (. + _Min_Heap_Size)
                0x0000000020000ae0                . = (. + _Min_Stack_Size)
 *fill*         0x00000000200006e0      0x400 00
                0x0000000020000ae0                . = ALIGN (0x4)

.memory_b1_text
 *(.mb1text)
 *(.mb1text*)
 *(.mb1rodata)
 *(.mb1rodata*)

/DISCARD/
 libc.a(*)
 libm.a(*)
 libgcc.a(*)

.ARM.attributes
                0x0000000000000000       0x2f
 *(.ARM.attributes)
 .ARM.attributes
                0x0000000000000000       0x21 ./stm_src/startup_stm32f4xx.o
 .ARM.attributes
                0x0000000000000021       0x33 ./stm_src/system_stm32f4xx.o
 .ARM.attributes
                0x0000000000000054       0x33 ./main.o
 .ARM.attributes
                0x0000000000000087       0x33 ./selftest.o
 .ARM.attributes
                0x00000000000000ba       0x33 ./stm32f4xx_it.o
 .ARM.attributes
                0x00000000000000ed       0x33 ./usb_bsp.o
 .ARM.attributes
                0x0000000000000120       0x33 ./usbd_desc.o
 .ARM.attributes
                0x0000000000000153       0x33 ./usbd_usr.o
OUTPUT(stm32f4-demonstration.elf elf32-littlearm)

.debug_line     0x0000000000000000     0x3daa
 .debug_line    0x0000000000000000       0xc2 ./stm_src/startup_stm32f4xx.o
 .debug_line    0x00000000000000c2      0x610 ./stm_src/system_stm32f4xx.o
 .debug_line    0x00000000000006d2      0xb79 ./main.o
 .debug_line    0x000000000000124b      0xa76 ./selftest.o
 .debug_line    0x0000000000001cc1      0xac6 ./stm32f4xx_it.o
 .debug_line    0x0000000000002787      0x6e0 ./usb_bsp.o
 .debug_line    0x0000000000002e67      0x7a0 ./usbd_desc.o
 .debug_line    0x0000000000003607      0x7a3 ./usbd_usr.o

.debug_info     0x0000000000000000     0x5b1d
 .debug_info    0x0000000000000000       0xdb ./stm_src/startup_stm32f4xx.o
 .debug_info    0x00000000000000db      0x5eb ./stm_src/system_stm32f4xx.o
 .debug_info    0x00000000000006c6     0x1b40 ./main.o
 .debug_info    0x0000000000002206      0xae3 ./selftest.o
 .debug_info    0x0000000000002ce9     0x11a3 ./stm32f4xx_it.o
 .debug_info    0x0000000000003e8c     0x110f ./usb_bsp.o
 .debug_info    0x0000000000004f9b      0x376 ./usbd_desc.o
 .debug_info    0x0000000000005311      0x80c ./usbd_usr.o

.debug_abbrev   0x0000000000000000      0xbbd
 .debug_abbrev  0x0000000000000000       0x12 ./stm_src/startup_stm32f4xx.o
 .debug_abbrev  0x0000000000000012      0x12f ./stm_src/system_stm32f4xx.o
 .debug_abbrev  0x0000000000000141      0x275 ./main.o
 .debug_abbrev  0x00000000000003b6      0x1af ./selftest.o
 .debug_abbrev  0x0000000000000565      0x1dc ./stm32f4xx_it.o
 .debug_abbrev  0x0000000000000741      0x1c8 ./usb_bsp.o
 .debug_abbrev  0x0000000000000909      0x10e ./usbd_desc.o
 .debug_abbrev  0x0000000000000a17      0x1a6 ./usbd_usr.o

.debug_aranges  0x0000000000000000      0x108
 .debug_aranges
                0x0000000000000000       0x28 ./stm_src/startup_stm32f4xx.o
 .debug_aranges
                0x0000000000000028       0x20 ./stm_src/system_stm32f4xx.o
 .debug_aranges
                0x0000000000000048       0x20 ./main.o
 .debug_aranges
                0x0000000000000068       0x20 ./selftest.o
 .debug_aranges
                0x0000000000000088       0x20 ./stm32f4xx_it.o
 .debug_aranges
                0x00000000000000a8       0x20 ./usb_bsp.o
 .debug_aranges
                0x00000000000000c8       0x20 ./usbd_desc.o
 .debug_aranges
                0x00000000000000e8       0x20 ./usbd_usr.o

.debug_ranges   0x0000000000000000       0x20
 .debug_ranges  0x0000000000000000       0x20 ./stm_src/startup_stm32f4xx.o

.debug_loc      0x0000000000000000      0xaf4
 .debug_loc     0x0000000000000000       0x9c ./stm_src/system_stm32f4xx.o
 .debug_loc     0x000000000000009c      0x20c ./main.o
 .debug_loc     0x00000000000002a8      0x1ec ./selftest.o
 .debug_loc     0x0000000000000494      0x248 ./stm32f4xx_it.o
 .debug_loc     0x00000000000006dc       0xe0 ./usb_bsp.o
 .debug_loc     0x00000000000007bc      0x188 ./usbd_desc.o
 .debug_loc     0x0000000000000944      0x1b0 ./usbd_usr.o

.debug_macinfo  0x0000000000000000   0x28f843
 .debug_macinfo
                0x0000000000000000    0x5a956 ./stm_src/system_stm32f4xx.o
 .debug_macinfo
                0x000000000005a956    0x60db9 ./main.o
 .debug_macinfo
                0x00000000000bb70f    0x5f61e ./selftest.o
 .debug_macinfo
                0x000000000011ad2d    0x60c82 ./stm32f4xx_it.o
 .debug_macinfo
                0x000000000017b9af    0x5ba33 ./usb_bsp.o
 .debug_macinfo
                0x00000000001d73e2    0x5c397 ./usbd_desc.o
 .debug_macinfo
                0x0000000000233779    0x5c0ca ./usbd_usr.o

.debug_str      0x0000000000000000     0x1cc6
 .debug_str     0x0000000000000000      0x2db ./stm_src/system_stm32f4xx.o
                                        0x327 (size before relaxing)
 .debug_str     0x00000000000002db     0x1297 ./main.o
                                       0x150d (size before relaxing)
 .debug_str     0x0000000000001572      0x369 ./selftest.o
                                        0x861 (size before relaxing)
 .debug_str     0x00000000000018db      0x114 ./stm32f4xx_it.o
                                        0xb1a (size before relaxing)
 .debug_str     0x00000000000019ef       0xf9 ./usb_bsp.o
                                       0x104b (size before relaxing)
 .debug_str     0x0000000000001ae8      0x12e ./usbd_desc.o
                                        0x30d (size before relaxing)
 .debug_str     0x0000000000001c16       0xb0 ./usbd_usr.o
                                        0x867 (size before relaxing)

.comment        0x0000000000000000       0x3d
 .comment       0x0000000000000000       0x3d ./stm_src/system_stm32f4xx.o
                                         0x3e (size before relaxing)
 .comment       0x0000000000000000       0x3e ./main.o
 .comment       0x0000000000000000       0x3e ./selftest.o
 .comment       0x0000000000000000       0x3e ./stm32f4xx_it.o
 .comment       0x0000000000000000       0x3e ./usb_bsp.o
 .comment       0x0000000000000000       0x3e ./usbd_desc.o
 .comment       0x0000000000000000       0x3e ./usbd_usr.o

.debug_frame    0x0000000000000000      0x6c0
 .debug_frame   0x0000000000000000       0x64 ./stm_src/system_stm32f4xx.o
 .debug_frame   0x0000000000000064      0x13c ./main.o
 .debug_frame   0x00000000000001a0      0x11c ./selftest.o
 .debug_frame   0x00000000000002bc      0x180 ./stm32f4xx_it.o
 .debug_frame   0x000000000000043c       0x8c ./usb_bsp.o
 .debug_frame   0x00000000000004c8       0xe8 ./usbd_desc.o
 .debug_frame   0x00000000000005b0      0x110 ./usbd_usr.o
