   1              		.syntax unified
   2              		.cpu cortex-m4
   3              		.fpu softvfp
   4              		.eabi_attribute 20, 1
   5              		.eabi_attribute 21, 1
   6              		.eabi_attribute 23, 3
   7              		.eabi_attribute 24, 1
   8              		.eabi_attribute 25, 1
   9              		.eabi_attribute 26, 1
  10              		.eabi_attribute 30, 6
  11              		.eabi_attribute 34, 1
  12              		.eabi_attribute 18, 4
  13              		.thumb
  14              		.file	"system_stm32f4xx.c"
  15              		.text
  16              	.Ltext0:
  17              		.cfi_sections	.debug_frame
  18              		.global	SystemCoreClock
  19              		.data
  20              		.align	2
  23              	SystemCoreClock:
  24 0000 007A030A 		.word	168000000
  25              		.global	AHBPrescTable
  26              		.align	2
  29              	AHBPrescTable:
  30 0004 00       		.byte	0
  31 0005 00       		.byte	0
  32 0006 00       		.byte	0
  33 0007 00       		.byte	0
  34 0008 00       		.byte	0
  35 0009 00       		.byte	0
  36 000a 00       		.byte	0
  37 000b 00       		.byte	0
  38 000c 01       		.byte	1
  39 000d 02       		.byte	2
  40 000e 03       		.byte	3
  41 000f 04       		.byte	4
  42 0010 06       		.byte	6
  43 0011 07       		.byte	7
  44 0012 08       		.byte	8
  45 0013 09       		.byte	9
  46              		.text
  47              		.align	2
  48              		.global	SystemInit
  49              		.thumb
  50              		.thumb_func
  52              	SystemInit:
  53              	.LFB110:
  54              		.file 1 "/Users/josefvanniekerk/Projects/stm32f4-discovery/libraries/cmsis/st/stm32f4xx/src/system
   1:/Users/josefvanniekerk/Projects/stm32f4-discovery/libraries/cmsis/st/stm32f4xx/src/system_stm32f4xx.c **** /**
   2:/Users/josefvanniekerk/Projects/stm32f4-discovery/libraries/cmsis/st/stm32f4xx/src/system_stm32f4xx.c ****   ******************************************************************************
   3:/Users/josefvanniekerk/Projects/stm32f4-discovery/libraries/cmsis/st/stm32f4xx/src/system_stm32f4xx.c ****   * @file    system_stm32f4xx.c
   4:/Users/josefvanniekerk/Projects/stm32f4-discovery/libraries/cmsis/st/stm32f4xx/src/system_stm32f4xx.c ****   * @author  MCD Application Team
   5:/Users/josefvanniekerk/Projects/stm32f4-discovery/libraries/cmsis/st/stm32f4xx/src/system_stm32f4xx.c ****   * @version V1.0.0
   6:/Users/josefvanniekerk/Projects/stm32f4-discovery/libraries/cmsis/st/stm32f4xx/src/system_stm32f4xx.c ****   * @date    30-September-2011
   7:/Users/josefvanniekerk/Projects/stm32f4-discovery/libraries/cmsis/st/stm32f4xx/src/system_stm32f4xx.c ****   * @brief   CMSIS Cortex-M4 Device Peripheral Access Layer System Source File.
   8:/Users/josefvanniekerk/Projects/stm32f4-discovery/libraries/cmsis/st/stm32f4xx/src/system_stm32f4xx.c ****   *          This file contains the system clock configuration for STM32F4xx devices,
   9:/Users/josefvanniekerk/Projects/stm32f4-discovery/libraries/cmsis/st/stm32f4xx/src/system_stm32f4xx.c ****   *          and is generated by the clock configuration tool
  10:/Users/josefvanniekerk/Projects/stm32f4-discovery/libraries/cmsis/st/stm32f4xx/src/system_stm32f4xx.c ****   *          stm32f4xx_Clock_Configuration_V1.0.0.xls
  11:/Users/josefvanniekerk/Projects/stm32f4-discovery/libraries/cmsis/st/stm32f4xx/src/system_stm32f4xx.c ****   *             
  12:/Users/josefvanniekerk/Projects/stm32f4-discovery/libraries/cmsis/st/stm32f4xx/src/system_stm32f4xx.c ****   * 1.  This file provides two functions and one global variable to be called from 
  13:/Users/josefvanniekerk/Projects/stm32f4-discovery/libraries/cmsis/st/stm32f4xx/src/system_stm32f4xx.c ****   *     user application:
  14:/Users/josefvanniekerk/Projects/stm32f4-discovery/libraries/cmsis/st/stm32f4xx/src/system_stm32f4xx.c ****   *      - SystemInit(): Setups the system clock (System clock source, PLL Multiplier
  15:/Users/josefvanniekerk/Projects/stm32f4-discovery/libraries/cmsis/st/stm32f4xx/src/system_stm32f4xx.c ****   *                      and Divider factors, AHB/APBx prescalers and Flash settings),
  16:/Users/josefvanniekerk/Projects/stm32f4-discovery/libraries/cmsis/st/stm32f4xx/src/system_stm32f4xx.c ****   *                      depending on the configuration made in the clock xls tool. 
  17:/Users/josefvanniekerk/Projects/stm32f4-discovery/libraries/cmsis/st/stm32f4xx/src/system_stm32f4xx.c ****   *                      This function is called at startup just after reset and 
  18:/Users/josefvanniekerk/Projects/stm32f4-discovery/libraries/cmsis/st/stm32f4xx/src/system_stm32f4xx.c ****   *                      before branch to main program. This call is made inside
  19:/Users/josefvanniekerk/Projects/stm32f4-discovery/libraries/cmsis/st/stm32f4xx/src/system_stm32f4xx.c ****   *                      the "startup_stm32f4xx.s" file.
  20:/Users/josefvanniekerk/Projects/stm32f4-discovery/libraries/cmsis/st/stm32f4xx/src/system_stm32f4xx.c ****   *
  21:/Users/josefvanniekerk/Projects/stm32f4-discovery/libraries/cmsis/st/stm32f4xx/src/system_stm32f4xx.c ****   *      - SystemCoreClock variable: Contains the core clock (HCLK), it can be used
  22:/Users/josefvanniekerk/Projects/stm32f4-discovery/libraries/cmsis/st/stm32f4xx/src/system_stm32f4xx.c ****   *                                  by the user application to setup the SysTick 
  23:/Users/josefvanniekerk/Projects/stm32f4-discovery/libraries/cmsis/st/stm32f4xx/src/system_stm32f4xx.c ****   *                                  timer or configure other parameters.
  24:/Users/josefvanniekerk/Projects/stm32f4-discovery/libraries/cmsis/st/stm32f4xx/src/system_stm32f4xx.c ****   *                                     
  25:/Users/josefvanniekerk/Projects/stm32f4-discovery/libraries/cmsis/st/stm32f4xx/src/system_stm32f4xx.c ****   *      - SystemCoreClockUpdate(): Updates the variable SystemCoreClock and must
  26:/Users/josefvanniekerk/Projects/stm32f4-discovery/libraries/cmsis/st/stm32f4xx/src/system_stm32f4xx.c ****   *                                 be called whenever the core clock is changed
  27:/Users/josefvanniekerk/Projects/stm32f4-discovery/libraries/cmsis/st/stm32f4xx/src/system_stm32f4xx.c ****   *                                 during program execution.
  28:/Users/josefvanniekerk/Projects/stm32f4-discovery/libraries/cmsis/st/stm32f4xx/src/system_stm32f4xx.c ****   *
  29:/Users/josefvanniekerk/Projects/stm32f4-discovery/libraries/cmsis/st/stm32f4xx/src/system_stm32f4xx.c ****   * 2. After each device reset the HSI (16 MHz) is used as system clock source.
  30:/Users/josefvanniekerk/Projects/stm32f4-discovery/libraries/cmsis/st/stm32f4xx/src/system_stm32f4xx.c ****   *    Then SystemInit() function is called, in "startup_stm32f4xx.s" file, to
  31:/Users/josefvanniekerk/Projects/stm32f4-discovery/libraries/cmsis/st/stm32f4xx/src/system_stm32f4xx.c ****   *    configure the system clock before to branch to main program.
  32:/Users/josefvanniekerk/Projects/stm32f4-discovery/libraries/cmsis/st/stm32f4xx/src/system_stm32f4xx.c ****   *
  33:/Users/josefvanniekerk/Projects/stm32f4-discovery/libraries/cmsis/st/stm32f4xx/src/system_stm32f4xx.c ****   * 3. If the system clock source selected by user fails to startup, the SystemInit()
  34:/Users/josefvanniekerk/Projects/stm32f4-discovery/libraries/cmsis/st/stm32f4xx/src/system_stm32f4xx.c ****   *    function will do nothing and HSI still used as system clock source. User can 
  35:/Users/josefvanniekerk/Projects/stm32f4-discovery/libraries/cmsis/st/stm32f4xx/src/system_stm32f4xx.c ****   *    add some code to deal with this issue inside the SetSysClock() function.
  36:/Users/josefvanniekerk/Projects/stm32f4-discovery/libraries/cmsis/st/stm32f4xx/src/system_stm32f4xx.c ****   *
  37:/Users/josefvanniekerk/Projects/stm32f4-discovery/libraries/cmsis/st/stm32f4xx/src/system_stm32f4xx.c ****   * 4. The default value of HSE crystal is set to 25MHz, refer to "HSE_VALUE" define
  38:/Users/josefvanniekerk/Projects/stm32f4-discovery/libraries/cmsis/st/stm32f4xx/src/system_stm32f4xx.c ****   *    in "stm32f4xx.h" file. When HSE is used as system clock source, directly or
  39:/Users/josefvanniekerk/Projects/stm32f4-discovery/libraries/cmsis/st/stm32f4xx/src/system_stm32f4xx.c ****   *    through PLL, and you are using different crystal you have to adapt the HSE
  40:/Users/josefvanniekerk/Projects/stm32f4-discovery/libraries/cmsis/st/stm32f4xx/src/system_stm32f4xx.c ****   *    value to your own configuration.
  41:/Users/josefvanniekerk/Projects/stm32f4-discovery/libraries/cmsis/st/stm32f4xx/src/system_stm32f4xx.c ****   *
  42:/Users/josefvanniekerk/Projects/stm32f4-discovery/libraries/cmsis/st/stm32f4xx/src/system_stm32f4xx.c ****   * 5. This file configures the system clock as follows:
  43:/Users/josefvanniekerk/Projects/stm32f4-discovery/libraries/cmsis/st/stm32f4xx/src/system_stm32f4xx.c ****   *=============================================================================
  44:/Users/josefvanniekerk/Projects/stm32f4-discovery/libraries/cmsis/st/stm32f4xx/src/system_stm32f4xx.c ****   *=============================================================================
  45:/Users/josefvanniekerk/Projects/stm32f4-discovery/libraries/cmsis/st/stm32f4xx/src/system_stm32f4xx.c ****   *        Supported STM32F4xx device revision    | Rev A
  46:/Users/josefvanniekerk/Projects/stm32f4-discovery/libraries/cmsis/st/stm32f4xx/src/system_stm32f4xx.c ****   *-----------------------------------------------------------------------------
  47:/Users/josefvanniekerk/Projects/stm32f4-discovery/libraries/cmsis/st/stm32f4xx/src/system_stm32f4xx.c ****   *        System Clock source                    | PLL (HSE)
  48:/Users/josefvanniekerk/Projects/stm32f4-discovery/libraries/cmsis/st/stm32f4xx/src/system_stm32f4xx.c ****   *-----------------------------------------------------------------------------
  49:/Users/josefvanniekerk/Projects/stm32f4-discovery/libraries/cmsis/st/stm32f4xx/src/system_stm32f4xx.c ****   *        SYSCLK(Hz)                             | 168000000
  50:/Users/josefvanniekerk/Projects/stm32f4-discovery/libraries/cmsis/st/stm32f4xx/src/system_stm32f4xx.c ****   *-----------------------------------------------------------------------------
  51:/Users/josefvanniekerk/Projects/stm32f4-discovery/libraries/cmsis/st/stm32f4xx/src/system_stm32f4xx.c ****   *        HCLK(Hz)                               | 168000000
  52:/Users/josefvanniekerk/Projects/stm32f4-discovery/libraries/cmsis/st/stm32f4xx/src/system_stm32f4xx.c ****   *-----------------------------------------------------------------------------
  53:/Users/josefvanniekerk/Projects/stm32f4-discovery/libraries/cmsis/st/stm32f4xx/src/system_stm32f4xx.c ****   *        AHB Prescaler                          | 1
  54:/Users/josefvanniekerk/Projects/stm32f4-discovery/libraries/cmsis/st/stm32f4xx/src/system_stm32f4xx.c ****   *-----------------------------------------------------------------------------
  55:/Users/josefvanniekerk/Projects/stm32f4-discovery/libraries/cmsis/st/stm32f4xx/src/system_stm32f4xx.c ****   *        APB1 Prescaler                         | 4
  56:/Users/josefvanniekerk/Projects/stm32f4-discovery/libraries/cmsis/st/stm32f4xx/src/system_stm32f4xx.c ****   *-----------------------------------------------------------------------------
  57:/Users/josefvanniekerk/Projects/stm32f4-discovery/libraries/cmsis/st/stm32f4xx/src/system_stm32f4xx.c ****   *        APB2 Prescaler                         | 2
  58:/Users/josefvanniekerk/Projects/stm32f4-discovery/libraries/cmsis/st/stm32f4xx/src/system_stm32f4xx.c ****   *-----------------------------------------------------------------------------
  59:/Users/josefvanniekerk/Projects/stm32f4-discovery/libraries/cmsis/st/stm32f4xx/src/system_stm32f4xx.c ****   *        HSE Frequency(Hz)                      | 25000000
  60:/Users/josefvanniekerk/Projects/stm32f4-discovery/libraries/cmsis/st/stm32f4xx/src/system_stm32f4xx.c ****   *-----------------------------------------------------------------------------
  61:/Users/josefvanniekerk/Projects/stm32f4-discovery/libraries/cmsis/st/stm32f4xx/src/system_stm32f4xx.c ****   *        PLL_M                                  | 25
  62:/Users/josefvanniekerk/Projects/stm32f4-discovery/libraries/cmsis/st/stm32f4xx/src/system_stm32f4xx.c ****   *-----------------------------------------------------------------------------
  63:/Users/josefvanniekerk/Projects/stm32f4-discovery/libraries/cmsis/st/stm32f4xx/src/system_stm32f4xx.c ****   *        PLL_N                                  | 336
  64:/Users/josefvanniekerk/Projects/stm32f4-discovery/libraries/cmsis/st/stm32f4xx/src/system_stm32f4xx.c ****   *-----------------------------------------------------------------------------
  65:/Users/josefvanniekerk/Projects/stm32f4-discovery/libraries/cmsis/st/stm32f4xx/src/system_stm32f4xx.c ****   *        PLL_P                                  | 2
  66:/Users/josefvanniekerk/Projects/stm32f4-discovery/libraries/cmsis/st/stm32f4xx/src/system_stm32f4xx.c ****   *-----------------------------------------------------------------------------
  67:/Users/josefvanniekerk/Projects/stm32f4-discovery/libraries/cmsis/st/stm32f4xx/src/system_stm32f4xx.c ****   *        PLL_Q                                  | 7
  68:/Users/josefvanniekerk/Projects/stm32f4-discovery/libraries/cmsis/st/stm32f4xx/src/system_stm32f4xx.c ****   *-----------------------------------------------------------------------------
  69:/Users/josefvanniekerk/Projects/stm32f4-discovery/libraries/cmsis/st/stm32f4xx/src/system_stm32f4xx.c ****   *        PLLI2S_N                               | NA
  70:/Users/josefvanniekerk/Projects/stm32f4-discovery/libraries/cmsis/st/stm32f4xx/src/system_stm32f4xx.c ****   *-----------------------------------------------------------------------------
  71:/Users/josefvanniekerk/Projects/stm32f4-discovery/libraries/cmsis/st/stm32f4xx/src/system_stm32f4xx.c ****   *        PLLI2S_R                               | NA
  72:/Users/josefvanniekerk/Projects/stm32f4-discovery/libraries/cmsis/st/stm32f4xx/src/system_stm32f4xx.c ****   *-----------------------------------------------------------------------------
  73:/Users/josefvanniekerk/Projects/stm32f4-discovery/libraries/cmsis/st/stm32f4xx/src/system_stm32f4xx.c ****   *        I2S input clock                        | NA
  74:/Users/josefvanniekerk/Projects/stm32f4-discovery/libraries/cmsis/st/stm32f4xx/src/system_stm32f4xx.c ****   *-----------------------------------------------------------------------------
  75:/Users/josefvanniekerk/Projects/stm32f4-discovery/libraries/cmsis/st/stm32f4xx/src/system_stm32f4xx.c ****   *        VDD(V)                                 | 3.3
  76:/Users/josefvanniekerk/Projects/stm32f4-discovery/libraries/cmsis/st/stm32f4xx/src/system_stm32f4xx.c ****   *-----------------------------------------------------------------------------
  77:/Users/josefvanniekerk/Projects/stm32f4-discovery/libraries/cmsis/st/stm32f4xx/src/system_stm32f4xx.c ****   *        Main regulator output voltage          | Scale1 mode
  78:/Users/josefvanniekerk/Projects/stm32f4-discovery/libraries/cmsis/st/stm32f4xx/src/system_stm32f4xx.c ****   *-----------------------------------------------------------------------------
  79:/Users/josefvanniekerk/Projects/stm32f4-discovery/libraries/cmsis/st/stm32f4xx/src/system_stm32f4xx.c ****   *        Flash Latency(WS)                      | 5
  80:/Users/josefvanniekerk/Projects/stm32f4-discovery/libraries/cmsis/st/stm32f4xx/src/system_stm32f4xx.c ****   *-----------------------------------------------------------------------------
  81:/Users/josefvanniekerk/Projects/stm32f4-discovery/libraries/cmsis/st/stm32f4xx/src/system_stm32f4xx.c ****   *        Prefetch Buffer                        | OFF
  82:/Users/josefvanniekerk/Projects/stm32f4-discovery/libraries/cmsis/st/stm32f4xx/src/system_stm32f4xx.c ****   *-----------------------------------------------------------------------------
  83:/Users/josefvanniekerk/Projects/stm32f4-discovery/libraries/cmsis/st/stm32f4xx/src/system_stm32f4xx.c ****   *        Instruction cache                      | ON
  84:/Users/josefvanniekerk/Projects/stm32f4-discovery/libraries/cmsis/st/stm32f4xx/src/system_stm32f4xx.c ****   *-----------------------------------------------------------------------------
  85:/Users/josefvanniekerk/Projects/stm32f4-discovery/libraries/cmsis/st/stm32f4xx/src/system_stm32f4xx.c ****   *        Data cache                             | ON
  86:/Users/josefvanniekerk/Projects/stm32f4-discovery/libraries/cmsis/st/stm32f4xx/src/system_stm32f4xx.c ****   *-----------------------------------------------------------------------------
  87:/Users/josefvanniekerk/Projects/stm32f4-discovery/libraries/cmsis/st/stm32f4xx/src/system_stm32f4xx.c ****   *        Require 48MHz for USB OTG FS,          | Enabled
  88:/Users/josefvanniekerk/Projects/stm32f4-discovery/libraries/cmsis/st/stm32f4xx/src/system_stm32f4xx.c ****   *        SDIO and RNG clock                     |
  89:/Users/josefvanniekerk/Projects/stm32f4-discovery/libraries/cmsis/st/stm32f4xx/src/system_stm32f4xx.c ****   *-----------------------------------------------------------------------------
  90:/Users/josefvanniekerk/Projects/stm32f4-discovery/libraries/cmsis/st/stm32f4xx/src/system_stm32f4xx.c ****   *=============================================================================
  91:/Users/josefvanniekerk/Projects/stm32f4-discovery/libraries/cmsis/st/stm32f4xx/src/system_stm32f4xx.c ****   ****************************************************************************** 
  92:/Users/josefvanniekerk/Projects/stm32f4-discovery/libraries/cmsis/st/stm32f4xx/src/system_stm32f4xx.c ****   * @attention
  93:/Users/josefvanniekerk/Projects/stm32f4-discovery/libraries/cmsis/st/stm32f4xx/src/system_stm32f4xx.c ****   *
  94:/Users/josefvanniekerk/Projects/stm32f4-discovery/libraries/cmsis/st/stm32f4xx/src/system_stm32f4xx.c ****   * THE PRESENT FIRMWARE WHICH IS FOR GUIDANCE ONLY AIMS AT PROVIDING CUSTOMERS
  95:/Users/josefvanniekerk/Projects/stm32f4-discovery/libraries/cmsis/st/stm32f4xx/src/system_stm32f4xx.c ****   * WITH CODING INFORMATION REGARDING THEIR PRODUCTS IN ORDER FOR THEM TO SAVE
  96:/Users/josefvanniekerk/Projects/stm32f4-discovery/libraries/cmsis/st/stm32f4xx/src/system_stm32f4xx.c ****   * TIME. AS A RESULT, STMICROELECTRONICS SHALL NOT BE HELD LIABLE FOR ANY
  97:/Users/josefvanniekerk/Projects/stm32f4-discovery/libraries/cmsis/st/stm32f4xx/src/system_stm32f4xx.c ****   * DIRECT, INDIRECT OR CONSEQUENTIAL DAMAGES WITH RESPECT TO ANY CLAIMS ARISING
  98:/Users/josefvanniekerk/Projects/stm32f4-discovery/libraries/cmsis/st/stm32f4xx/src/system_stm32f4xx.c ****   * FROM THE CONTENT OF SUCH FIRMWARE AND/OR THE USE MADE BY CUSTOMERS OF THE
  99:/Users/josefvanniekerk/Projects/stm32f4-discovery/libraries/cmsis/st/stm32f4xx/src/system_stm32f4xx.c ****   * CODING INFORMATION CONTAINED HEREIN IN CONNECTION WITH THEIR PRODUCTS.
 100:/Users/josefvanniekerk/Projects/stm32f4-discovery/libraries/cmsis/st/stm32f4xx/src/system_stm32f4xx.c ****   *
 101:/Users/josefvanniekerk/Projects/stm32f4-discovery/libraries/cmsis/st/stm32f4xx/src/system_stm32f4xx.c ****   * <h2><center>&copy; COPYRIGHT 2011 STMicroelectronics</center></h2>
 102:/Users/josefvanniekerk/Projects/stm32f4-discovery/libraries/cmsis/st/stm32f4xx/src/system_stm32f4xx.c ****   ******************************************************************************
 103:/Users/josefvanniekerk/Projects/stm32f4-discovery/libraries/cmsis/st/stm32f4xx/src/system_stm32f4xx.c ****   */
 104:/Users/josefvanniekerk/Projects/stm32f4-discovery/libraries/cmsis/st/stm32f4xx/src/system_stm32f4xx.c **** 
 105:/Users/josefvanniekerk/Projects/stm32f4-discovery/libraries/cmsis/st/stm32f4xx/src/system_stm32f4xx.c **** /** @addtogroup CMSIS
 106:/Users/josefvanniekerk/Projects/stm32f4-discovery/libraries/cmsis/st/stm32f4xx/src/system_stm32f4xx.c ****   * @{
 107:/Users/josefvanniekerk/Projects/stm32f4-discovery/libraries/cmsis/st/stm32f4xx/src/system_stm32f4xx.c ****   */
 108:/Users/josefvanniekerk/Projects/stm32f4-discovery/libraries/cmsis/st/stm32f4xx/src/system_stm32f4xx.c **** 
 109:/Users/josefvanniekerk/Projects/stm32f4-discovery/libraries/cmsis/st/stm32f4xx/src/system_stm32f4xx.c **** /** @addtogroup stm32f4xx_system
 110:/Users/josefvanniekerk/Projects/stm32f4-discovery/libraries/cmsis/st/stm32f4xx/src/system_stm32f4xx.c ****   * @{
 111:/Users/josefvanniekerk/Projects/stm32f4-discovery/libraries/cmsis/st/stm32f4xx/src/system_stm32f4xx.c ****   */  
 112:/Users/josefvanniekerk/Projects/stm32f4-discovery/libraries/cmsis/st/stm32f4xx/src/system_stm32f4xx.c ****   
 113:/Users/josefvanniekerk/Projects/stm32f4-discovery/libraries/cmsis/st/stm32f4xx/src/system_stm32f4xx.c **** /** @addtogroup STM32F4xx_System_Private_Includes
 114:/Users/josefvanniekerk/Projects/stm32f4-discovery/libraries/cmsis/st/stm32f4xx/src/system_stm32f4xx.c ****   * @{
 115:/Users/josefvanniekerk/Projects/stm32f4-discovery/libraries/cmsis/st/stm32f4xx/src/system_stm32f4xx.c ****   */
 116:/Users/josefvanniekerk/Projects/stm32f4-discovery/libraries/cmsis/st/stm32f4xx/src/system_stm32f4xx.c **** 
 117:/Users/josefvanniekerk/Projects/stm32f4-discovery/libraries/cmsis/st/stm32f4xx/src/system_stm32f4xx.c **** #include "stm32f4xx.h"
 118:/Users/josefvanniekerk/Projects/stm32f4-discovery/libraries/cmsis/st/stm32f4xx/src/system_stm32f4xx.c **** 
 119:/Users/josefvanniekerk/Projects/stm32f4-discovery/libraries/cmsis/st/stm32f4xx/src/system_stm32f4xx.c **** /**
 120:/Users/josefvanniekerk/Projects/stm32f4-discovery/libraries/cmsis/st/stm32f4xx/src/system_stm32f4xx.c ****   * @}
 121:/Users/josefvanniekerk/Projects/stm32f4-discovery/libraries/cmsis/st/stm32f4xx/src/system_stm32f4xx.c ****   */
 122:/Users/josefvanniekerk/Projects/stm32f4-discovery/libraries/cmsis/st/stm32f4xx/src/system_stm32f4xx.c **** 
 123:/Users/josefvanniekerk/Projects/stm32f4-discovery/libraries/cmsis/st/stm32f4xx/src/system_stm32f4xx.c **** /** @addtogroup STM32F4xx_System_Private_TypesDefinitions
 124:/Users/josefvanniekerk/Projects/stm32f4-discovery/libraries/cmsis/st/stm32f4xx/src/system_stm32f4xx.c ****   * @{
 125:/Users/josefvanniekerk/Projects/stm32f4-discovery/libraries/cmsis/st/stm32f4xx/src/system_stm32f4xx.c ****   */
 126:/Users/josefvanniekerk/Projects/stm32f4-discovery/libraries/cmsis/st/stm32f4xx/src/system_stm32f4xx.c **** 
 127:/Users/josefvanniekerk/Projects/stm32f4-discovery/libraries/cmsis/st/stm32f4xx/src/system_stm32f4xx.c **** /**
 128:/Users/josefvanniekerk/Projects/stm32f4-discovery/libraries/cmsis/st/stm32f4xx/src/system_stm32f4xx.c ****   * @}
 129:/Users/josefvanniekerk/Projects/stm32f4-discovery/libraries/cmsis/st/stm32f4xx/src/system_stm32f4xx.c ****   */
 130:/Users/josefvanniekerk/Projects/stm32f4-discovery/libraries/cmsis/st/stm32f4xx/src/system_stm32f4xx.c **** 
 131:/Users/josefvanniekerk/Projects/stm32f4-discovery/libraries/cmsis/st/stm32f4xx/src/system_stm32f4xx.c **** /** @addtogroup STM32F4xx_System_Private_Defines
 132:/Users/josefvanniekerk/Projects/stm32f4-discovery/libraries/cmsis/st/stm32f4xx/src/system_stm32f4xx.c ****   * @{
 133:/Users/josefvanniekerk/Projects/stm32f4-discovery/libraries/cmsis/st/stm32f4xx/src/system_stm32f4xx.c ****   */
 134:/Users/josefvanniekerk/Projects/stm32f4-discovery/libraries/cmsis/st/stm32f4xx/src/system_stm32f4xx.c **** 
 135:/Users/josefvanniekerk/Projects/stm32f4-discovery/libraries/cmsis/st/stm32f4xx/src/system_stm32f4xx.c **** /************************* Miscellaneous Configuration ************************/
 136:/Users/josefvanniekerk/Projects/stm32f4-discovery/libraries/cmsis/st/stm32f4xx/src/system_stm32f4xx.c **** /*!< Uncomment the following line if you need to use external SRAM mounted
 137:/Users/josefvanniekerk/Projects/stm32f4-discovery/libraries/cmsis/st/stm32f4xx/src/system_stm32f4xx.c ****      on STM324xG_EVAL board as data memory  */
 138:/Users/josefvanniekerk/Projects/stm32f4-discovery/libraries/cmsis/st/stm32f4xx/src/system_stm32f4xx.c **** /* #define DATA_IN_ExtSRAM */
 139:/Users/josefvanniekerk/Projects/stm32f4-discovery/libraries/cmsis/st/stm32f4xx/src/system_stm32f4xx.c **** 
 140:/Users/josefvanniekerk/Projects/stm32f4-discovery/libraries/cmsis/st/stm32f4xx/src/system_stm32f4xx.c **** /*!< Uncomment the following line if you need to relocate your vector Table in
 141:/Users/josefvanniekerk/Projects/stm32f4-discovery/libraries/cmsis/st/stm32f4xx/src/system_stm32f4xx.c ****      Internal SRAM. */
 142:/Users/josefvanniekerk/Projects/stm32f4-discovery/libraries/cmsis/st/stm32f4xx/src/system_stm32f4xx.c **** /* #define VECT_TAB_SRAM */
 143:/Users/josefvanniekerk/Projects/stm32f4-discovery/libraries/cmsis/st/stm32f4xx/src/system_stm32f4xx.c **** #define VECT_TAB_OFFSET  0x00 /*!< Vector Table base offset field. 
 144:/Users/josefvanniekerk/Projects/stm32f4-discovery/libraries/cmsis/st/stm32f4xx/src/system_stm32f4xx.c ****                                    This value must be a multiple of 0x200. */
 145:/Users/josefvanniekerk/Projects/stm32f4-discovery/libraries/cmsis/st/stm32f4xx/src/system_stm32f4xx.c **** /******************************************************************************/
 146:/Users/josefvanniekerk/Projects/stm32f4-discovery/libraries/cmsis/st/stm32f4xx/src/system_stm32f4xx.c **** 
 147:/Users/josefvanniekerk/Projects/stm32f4-discovery/libraries/cmsis/st/stm32f4xx/src/system_stm32f4xx.c **** /************************* PLL Parameters *************************************/
 148:/Users/josefvanniekerk/Projects/stm32f4-discovery/libraries/cmsis/st/stm32f4xx/src/system_stm32f4xx.c **** /* PLL_VCO = (HSE_VALUE or HSI_VALUE / PLL_M) * PLL_N */
 149:/Users/josefvanniekerk/Projects/stm32f4-discovery/libraries/cmsis/st/stm32f4xx/src/system_stm32f4xx.c **** #define PLL_M      25
 150:/Users/josefvanniekerk/Projects/stm32f4-discovery/libraries/cmsis/st/stm32f4xx/src/system_stm32f4xx.c **** #define PLL_N      336
 151:/Users/josefvanniekerk/Projects/stm32f4-discovery/libraries/cmsis/st/stm32f4xx/src/system_stm32f4xx.c **** 
 152:/Users/josefvanniekerk/Projects/stm32f4-discovery/libraries/cmsis/st/stm32f4xx/src/system_stm32f4xx.c **** /* SYSCLK = PLL_VCO / PLL_P */
 153:/Users/josefvanniekerk/Projects/stm32f4-discovery/libraries/cmsis/st/stm32f4xx/src/system_stm32f4xx.c **** #define PLL_P      2
 154:/Users/josefvanniekerk/Projects/stm32f4-discovery/libraries/cmsis/st/stm32f4xx/src/system_stm32f4xx.c **** 
 155:/Users/josefvanniekerk/Projects/stm32f4-discovery/libraries/cmsis/st/stm32f4xx/src/system_stm32f4xx.c **** /* USB OTG FS, SDIO and RNG Clock =  PLL_VCO / PLLQ */
 156:/Users/josefvanniekerk/Projects/stm32f4-discovery/libraries/cmsis/st/stm32f4xx/src/system_stm32f4xx.c **** #define PLL_Q      7
 157:/Users/josefvanniekerk/Projects/stm32f4-discovery/libraries/cmsis/st/stm32f4xx/src/system_stm32f4xx.c **** 
 158:/Users/josefvanniekerk/Projects/stm32f4-discovery/libraries/cmsis/st/stm32f4xx/src/system_stm32f4xx.c **** /******************************************************************************/
 159:/Users/josefvanniekerk/Projects/stm32f4-discovery/libraries/cmsis/st/stm32f4xx/src/system_stm32f4xx.c **** 
 160:/Users/josefvanniekerk/Projects/stm32f4-discovery/libraries/cmsis/st/stm32f4xx/src/system_stm32f4xx.c **** /**
 161:/Users/josefvanniekerk/Projects/stm32f4-discovery/libraries/cmsis/st/stm32f4xx/src/system_stm32f4xx.c ****   * @}
 162:/Users/josefvanniekerk/Projects/stm32f4-discovery/libraries/cmsis/st/stm32f4xx/src/system_stm32f4xx.c ****   */
 163:/Users/josefvanniekerk/Projects/stm32f4-discovery/libraries/cmsis/st/stm32f4xx/src/system_stm32f4xx.c **** 
 164:/Users/josefvanniekerk/Projects/stm32f4-discovery/libraries/cmsis/st/stm32f4xx/src/system_stm32f4xx.c **** /** @addtogroup STM32F4xx_System_Private_Macros
 165:/Users/josefvanniekerk/Projects/stm32f4-discovery/libraries/cmsis/st/stm32f4xx/src/system_stm32f4xx.c ****   * @{
 166:/Users/josefvanniekerk/Projects/stm32f4-discovery/libraries/cmsis/st/stm32f4xx/src/system_stm32f4xx.c ****   */
 167:/Users/josefvanniekerk/Projects/stm32f4-discovery/libraries/cmsis/st/stm32f4xx/src/system_stm32f4xx.c **** 
 168:/Users/josefvanniekerk/Projects/stm32f4-discovery/libraries/cmsis/st/stm32f4xx/src/system_stm32f4xx.c **** /**
 169:/Users/josefvanniekerk/Projects/stm32f4-discovery/libraries/cmsis/st/stm32f4xx/src/system_stm32f4xx.c ****   * @}
 170:/Users/josefvanniekerk/Projects/stm32f4-discovery/libraries/cmsis/st/stm32f4xx/src/system_stm32f4xx.c ****   */
 171:/Users/josefvanniekerk/Projects/stm32f4-discovery/libraries/cmsis/st/stm32f4xx/src/system_stm32f4xx.c **** 
 172:/Users/josefvanniekerk/Projects/stm32f4-discovery/libraries/cmsis/st/stm32f4xx/src/system_stm32f4xx.c **** /** @addtogroup STM32F4xx_System_Private_Variables
 173:/Users/josefvanniekerk/Projects/stm32f4-discovery/libraries/cmsis/st/stm32f4xx/src/system_stm32f4xx.c ****   * @{
 174:/Users/josefvanniekerk/Projects/stm32f4-discovery/libraries/cmsis/st/stm32f4xx/src/system_stm32f4xx.c ****   */
 175:/Users/josefvanniekerk/Projects/stm32f4-discovery/libraries/cmsis/st/stm32f4xx/src/system_stm32f4xx.c **** 
 176:/Users/josefvanniekerk/Projects/stm32f4-discovery/libraries/cmsis/st/stm32f4xx/src/system_stm32f4xx.c ****   uint32_t SystemCoreClock = 168000000;
 177:/Users/josefvanniekerk/Projects/stm32f4-discovery/libraries/cmsis/st/stm32f4xx/src/system_stm32f4xx.c **** 
 178:/Users/josefvanniekerk/Projects/stm32f4-discovery/libraries/cmsis/st/stm32f4xx/src/system_stm32f4xx.c ****   __I uint8_t AHBPrescTable[16] = {0, 0, 0, 0, 0, 0, 0, 0, 1, 2, 3, 4, 6, 7, 8, 9};
 179:/Users/josefvanniekerk/Projects/stm32f4-discovery/libraries/cmsis/st/stm32f4xx/src/system_stm32f4xx.c **** 
 180:/Users/josefvanniekerk/Projects/stm32f4-discovery/libraries/cmsis/st/stm32f4xx/src/system_stm32f4xx.c **** /**
 181:/Users/josefvanniekerk/Projects/stm32f4-discovery/libraries/cmsis/st/stm32f4xx/src/system_stm32f4xx.c ****   * @}
 182:/Users/josefvanniekerk/Projects/stm32f4-discovery/libraries/cmsis/st/stm32f4xx/src/system_stm32f4xx.c ****   */
 183:/Users/josefvanniekerk/Projects/stm32f4-discovery/libraries/cmsis/st/stm32f4xx/src/system_stm32f4xx.c **** 
 184:/Users/josefvanniekerk/Projects/stm32f4-discovery/libraries/cmsis/st/stm32f4xx/src/system_stm32f4xx.c **** /** @addtogroup STM32F4xx_System_Private_FunctionPrototypes
 185:/Users/josefvanniekerk/Projects/stm32f4-discovery/libraries/cmsis/st/stm32f4xx/src/system_stm32f4xx.c ****   * @{
 186:/Users/josefvanniekerk/Projects/stm32f4-discovery/libraries/cmsis/st/stm32f4xx/src/system_stm32f4xx.c ****   */
 187:/Users/josefvanniekerk/Projects/stm32f4-discovery/libraries/cmsis/st/stm32f4xx/src/system_stm32f4xx.c **** 
 188:/Users/josefvanniekerk/Projects/stm32f4-discovery/libraries/cmsis/st/stm32f4xx/src/system_stm32f4xx.c **** static void SetSysClock(void);
 189:/Users/josefvanniekerk/Projects/stm32f4-discovery/libraries/cmsis/st/stm32f4xx/src/system_stm32f4xx.c **** #ifdef DATA_IN_ExtSRAM
 190:/Users/josefvanniekerk/Projects/stm32f4-discovery/libraries/cmsis/st/stm32f4xx/src/system_stm32f4xx.c ****   static void SystemInit_ExtMemCtl(void); 
 191:/Users/josefvanniekerk/Projects/stm32f4-discovery/libraries/cmsis/st/stm32f4xx/src/system_stm32f4xx.c **** #endif /* DATA_IN_ExtSRAM */
 192:/Users/josefvanniekerk/Projects/stm32f4-discovery/libraries/cmsis/st/stm32f4xx/src/system_stm32f4xx.c **** 
 193:/Users/josefvanniekerk/Projects/stm32f4-discovery/libraries/cmsis/st/stm32f4xx/src/system_stm32f4xx.c **** /**
 194:/Users/josefvanniekerk/Projects/stm32f4-discovery/libraries/cmsis/st/stm32f4xx/src/system_stm32f4xx.c ****   * @}
 195:/Users/josefvanniekerk/Projects/stm32f4-discovery/libraries/cmsis/st/stm32f4xx/src/system_stm32f4xx.c ****   */
 196:/Users/josefvanniekerk/Projects/stm32f4-discovery/libraries/cmsis/st/stm32f4xx/src/system_stm32f4xx.c **** 
 197:/Users/josefvanniekerk/Projects/stm32f4-discovery/libraries/cmsis/st/stm32f4xx/src/system_stm32f4xx.c **** /** @addtogroup STM32F4xx_System_Private_Functions
 198:/Users/josefvanniekerk/Projects/stm32f4-discovery/libraries/cmsis/st/stm32f4xx/src/system_stm32f4xx.c ****   * @{
 199:/Users/josefvanniekerk/Projects/stm32f4-discovery/libraries/cmsis/st/stm32f4xx/src/system_stm32f4xx.c ****   */
 200:/Users/josefvanniekerk/Projects/stm32f4-discovery/libraries/cmsis/st/stm32f4xx/src/system_stm32f4xx.c **** 
 201:/Users/josefvanniekerk/Projects/stm32f4-discovery/libraries/cmsis/st/stm32f4xx/src/system_stm32f4xx.c **** /**
 202:/Users/josefvanniekerk/Projects/stm32f4-discovery/libraries/cmsis/st/stm32f4xx/src/system_stm32f4xx.c ****   * @brief  Setup the microcontroller system
 203:/Users/josefvanniekerk/Projects/stm32f4-discovery/libraries/cmsis/st/stm32f4xx/src/system_stm32f4xx.c ****   *         Initialize the Embedded Flash Interface, the PLL and update the 
 204:/Users/josefvanniekerk/Projects/stm32f4-discovery/libraries/cmsis/st/stm32f4xx/src/system_stm32f4xx.c ****   *         SystemFrequency variable.
 205:/Users/josefvanniekerk/Projects/stm32f4-discovery/libraries/cmsis/st/stm32f4xx/src/system_stm32f4xx.c ****   * @param  None
 206:/Users/josefvanniekerk/Projects/stm32f4-discovery/libraries/cmsis/st/stm32f4xx/src/system_stm32f4xx.c ****   * @retval None
 207:/Users/josefvanniekerk/Projects/stm32f4-discovery/libraries/cmsis/st/stm32f4xx/src/system_stm32f4xx.c ****   */
 208:/Users/josefvanniekerk/Projects/stm32f4-discovery/libraries/cmsis/st/stm32f4xx/src/system_stm32f4xx.c **** void SystemInit(void)
 209:/Users/josefvanniekerk/Projects/stm32f4-discovery/libraries/cmsis/st/stm32f4xx/src/system_stm32f4xx.c **** {
  55              		.loc 1 209 0
  56              		.cfi_startproc
  57              		@ args = 0, pretend = 0, frame = 0
  58              		@ frame_needed = 1, uses_anonymous_args = 0
  59 0000 80B5     		push	{r7, lr}
  60              	.LCFI0:
  61              		.cfi_def_cfa_offset 8
  62              		.cfi_offset 14, -4
  63              		.cfi_offset 7, -8
  64 0002 00AF     		add	r7, sp, #0
  65              	.LCFI1:
  66              		.cfi_def_cfa_register 7
 210:/Users/josefvanniekerk/Projects/stm32f4-discovery/libraries/cmsis/st/stm32f4xx/src/system_stm32f4xx.c ****   /* FPU settings ------------------------------------------------------------*/
 211:/Users/josefvanniekerk/Projects/stm32f4-discovery/libraries/cmsis/st/stm32f4xx/src/system_stm32f4xx.c ****   #if (__FPU_PRESENT == 1) && (__FPU_USED == 1)
 212:/Users/josefvanniekerk/Projects/stm32f4-discovery/libraries/cmsis/st/stm32f4xx/src/system_stm32f4xx.c ****     SCB->CPACR |= ((3UL << 10*2)|(3UL << 11*2));  /* set CP10 and CP11 Full Access */
 213:/Users/josefvanniekerk/Projects/stm32f4-discovery/libraries/cmsis/st/stm32f4xx/src/system_stm32f4xx.c ****   #endif
 214:/Users/josefvanniekerk/Projects/stm32f4-discovery/libraries/cmsis/st/stm32f4xx/src/system_stm32f4xx.c **** 
 215:/Users/josefvanniekerk/Projects/stm32f4-discovery/libraries/cmsis/st/stm32f4xx/src/system_stm32f4xx.c ****   /* Reset the RCC clock configuration to the default reset state ------------*/
 216:/Users/josefvanniekerk/Projects/stm32f4-discovery/libraries/cmsis/st/stm32f4xx/src/system_stm32f4xx.c ****   /* Set HSION bit */
 217:/Users/josefvanniekerk/Projects/stm32f4-discovery/libraries/cmsis/st/stm32f4xx/src/system_stm32f4xx.c ****   RCC->CR |= (uint32_t)0x00000001;
  67              		.loc 1 217 0
  68 0004 4FF46053 		mov	r3, #14336
  69 0008 C4F20203 		movt	r3, 16386
  70 000c 4FF46052 		mov	r2, #14336
  71 0010 C4F20202 		movt	r2, 16386
  72 0014 1268     		ldr	r2, [r2, #0]
  73 0016 42F00102 		orr	r2, r2, #1
  74 001a 1A60     		str	r2, [r3, #0]
 218:/Users/josefvanniekerk/Projects/stm32f4-discovery/libraries/cmsis/st/stm32f4xx/src/system_stm32f4xx.c **** 
 219:/Users/josefvanniekerk/Projects/stm32f4-discovery/libraries/cmsis/st/stm32f4xx/src/system_stm32f4xx.c ****   /* Reset CFGR register */
 220:/Users/josefvanniekerk/Projects/stm32f4-discovery/libraries/cmsis/st/stm32f4xx/src/system_stm32f4xx.c ****   RCC->CFGR = 0x00000000;
  75              		.loc 1 220 0
  76 001c 4FF46053 		mov	r3, #14336
  77 0020 C4F20203 		movt	r3, 16386
  78 0024 4FF00002 		mov	r2, #0
  79 0028 9A60     		str	r2, [r3, #8]
 221:/Users/josefvanniekerk/Projects/stm32f4-discovery/libraries/cmsis/st/stm32f4xx/src/system_stm32f4xx.c **** 
 222:/Users/josefvanniekerk/Projects/stm32f4-discovery/libraries/cmsis/st/stm32f4xx/src/system_stm32f4xx.c ****   /* Reset HSEON, CSSON and PLLON bits */
 223:/Users/josefvanniekerk/Projects/stm32f4-discovery/libraries/cmsis/st/stm32f4xx/src/system_stm32f4xx.c ****   RCC->CR &= (uint32_t)0xFEF6FFFF;
  80              		.loc 1 223 0
  81 002a 4FF46053 		mov	r3, #14336
  82 002e C4F20203 		movt	r3, 16386
  83 0032 4FF46052 		mov	r2, #14336
  84 0036 C4F20202 		movt	r2, 16386
  85 003a 1268     		ldr	r2, [r2, #0]
  86 003c 22F08472 		bic	r2, r2, #17301504
  87 0040 22F48032 		bic	r2, r2, #65536
  88 0044 1A60     		str	r2, [r3, #0]
 224:/Users/josefvanniekerk/Projects/stm32f4-discovery/libraries/cmsis/st/stm32f4xx/src/system_stm32f4xx.c **** 
 225:/Users/josefvanniekerk/Projects/stm32f4-discovery/libraries/cmsis/st/stm32f4xx/src/system_stm32f4xx.c ****   /* Reset PLLCFGR register */
 226:/Users/josefvanniekerk/Projects/stm32f4-discovery/libraries/cmsis/st/stm32f4xx/src/system_stm32f4xx.c ****   RCC->PLLCFGR = 0x24003010;
  89              		.loc 1 226 0
  90 0046 4FF46053 		mov	r3, #14336
  91 004a C4F20203 		movt	r3, 16386
  92 004e 43F21002 		movw	r2, #12304
  93 0052 C2F20042 		movt	r2, 9216
  94 0056 5A60     		str	r2, [r3, #4]
 227:/Users/josefvanniekerk/Projects/stm32f4-discovery/libraries/cmsis/st/stm32f4xx/src/system_stm32f4xx.c **** 
 228:/Users/josefvanniekerk/Projects/stm32f4-discovery/libraries/cmsis/st/stm32f4xx/src/system_stm32f4xx.c ****   /* Reset HSEBYP bit */
 229:/Users/josefvanniekerk/Projects/stm32f4-discovery/libraries/cmsis/st/stm32f4xx/src/system_stm32f4xx.c ****   RCC->CR &= (uint32_t)0xFFFBFFFF;
  95              		.loc 1 229 0
  96 0058 4FF46053 		mov	r3, #14336
  97 005c C4F20203 		movt	r3, 16386
  98 0060 4FF46052 		mov	r2, #14336
  99 0064 C4F20202 		movt	r2, 16386
 100 0068 1268     		ldr	r2, [r2, #0]
 101 006a 22F48022 		bic	r2, r2, #262144
 102 006e 1A60     		str	r2, [r3, #0]
 230:/Users/josefvanniekerk/Projects/stm32f4-discovery/libraries/cmsis/st/stm32f4xx/src/system_stm32f4xx.c **** 
 231:/Users/josefvanniekerk/Projects/stm32f4-discovery/libraries/cmsis/st/stm32f4xx/src/system_stm32f4xx.c ****   /* Disable all interrupts */
 232:/Users/josefvanniekerk/Projects/stm32f4-discovery/libraries/cmsis/st/stm32f4xx/src/system_stm32f4xx.c ****   RCC->CIR = 0x00000000;
 103              		.loc 1 232 0
 104 0070 4FF46053 		mov	r3, #14336
 105 0074 C4F20203 		movt	r3, 16386
 106 0078 4FF00002 		mov	r2, #0
 107 007c DA60     		str	r2, [r3, #12]
 233:/Users/josefvanniekerk/Projects/stm32f4-discovery/libraries/cmsis/st/stm32f4xx/src/system_stm32f4xx.c **** 
 234:/Users/josefvanniekerk/Projects/stm32f4-discovery/libraries/cmsis/st/stm32f4xx/src/system_stm32f4xx.c **** #ifdef DATA_IN_ExtSRAM
 235:/Users/josefvanniekerk/Projects/stm32f4-discovery/libraries/cmsis/st/stm32f4xx/src/system_stm32f4xx.c ****   SystemInit_ExtMemCtl(); 
 236:/Users/josefvanniekerk/Projects/stm32f4-discovery/libraries/cmsis/st/stm32f4xx/src/system_stm32f4xx.c **** #endif /* DATA_IN_ExtSRAM */
 237:/Users/josefvanniekerk/Projects/stm32f4-discovery/libraries/cmsis/st/stm32f4xx/src/system_stm32f4xx.c ****          
 238:/Users/josefvanniekerk/Projects/stm32f4-discovery/libraries/cmsis/st/stm32f4xx/src/system_stm32f4xx.c ****   /* Configure the System clock source, PLL Multiplier and Divider factors, 
 239:/Users/josefvanniekerk/Projects/stm32f4-discovery/libraries/cmsis/st/stm32f4xx/src/system_stm32f4xx.c ****      AHB/APBx prescalers and Flash settings ----------------------------------*/
 240:/Users/josefvanniekerk/Projects/stm32f4-discovery/libraries/cmsis/st/stm32f4xx/src/system_stm32f4xx.c ****   SetSysClock();
 108              		.loc 1 240 0
 109 007e 00F0C1F8 		bl	SetSysClock
 241:/Users/josefvanniekerk/Projects/stm32f4-discovery/libraries/cmsis/st/stm32f4xx/src/system_stm32f4xx.c **** 
 242:/Users/josefvanniekerk/Projects/stm32f4-discovery/libraries/cmsis/st/stm32f4xx/src/system_stm32f4xx.c ****   /* Configure the Vector Table location add offset address ------------------*/
 243:/Users/josefvanniekerk/Projects/stm32f4-discovery/libraries/cmsis/st/stm32f4xx/src/system_stm32f4xx.c **** #ifdef VECT_TAB_SRAM
 244:/Users/josefvanniekerk/Projects/stm32f4-discovery/libraries/cmsis/st/stm32f4xx/src/system_stm32f4xx.c ****   SCB->VTOR = SRAM_BASE | VECT_TAB_OFFSET; /* Vector Table Relocation in Internal SRAM */
 245:/Users/josefvanniekerk/Projects/stm32f4-discovery/libraries/cmsis/st/stm32f4xx/src/system_stm32f4xx.c **** #else
 246:/Users/josefvanniekerk/Projects/stm32f4-discovery/libraries/cmsis/st/stm32f4xx/src/system_stm32f4xx.c ****   SCB->VTOR = FLASH_BASE | VECT_TAB_OFFSET; /* Vector Table Relocation in Internal FLASH */
 110              		.loc 1 246 0
 111 0082 4FF46D43 		mov	r3, #60672
 112 0086 CEF20003 		movt	r3, 57344
 113 008a 4FF00062 		mov	r2, #134217728
 114 008e 9A60     		str	r2, [r3, #8]
 247:/Users/josefvanniekerk/Projects/stm32f4-discovery/libraries/cmsis/st/stm32f4xx/src/system_stm32f4xx.c **** #endif
 248:/Users/josefvanniekerk/Projects/stm32f4-discovery/libraries/cmsis/st/stm32f4xx/src/system_stm32f4xx.c **** }
 115              		.loc 1 248 0
 116 0090 80BD     		pop	{r7, pc}
 117              		.cfi_endproc
 118              	.LFE110:
 120 0092 00BF     		.align	2
 121              		.global	SystemCoreClockUpdate
 122              		.thumb
 123              		.thumb_func
 125              	SystemCoreClockUpdate:
 126              	.LFB111:
 249:/Users/josefvanniekerk/Projects/stm32f4-discovery/libraries/cmsis/st/stm32f4xx/src/system_stm32f4xx.c **** 
 250:/Users/josefvanniekerk/Projects/stm32f4-discovery/libraries/cmsis/st/stm32f4xx/src/system_stm32f4xx.c **** /**
 251:/Users/josefvanniekerk/Projects/stm32f4-discovery/libraries/cmsis/st/stm32f4xx/src/system_stm32f4xx.c ****    * @brief  Update SystemCoreClock variable according to Clock Register Values.
 252:/Users/josefvanniekerk/Projects/stm32f4-discovery/libraries/cmsis/st/stm32f4xx/src/system_stm32f4xx.c ****   *         The SystemCoreClock variable contains the core clock (HCLK), it can
 253:/Users/josefvanniekerk/Projects/stm32f4-discovery/libraries/cmsis/st/stm32f4xx/src/system_stm32f4xx.c ****   *         be used by the user application to setup the SysTick timer or configure
 254:/Users/josefvanniekerk/Projects/stm32f4-discovery/libraries/cmsis/st/stm32f4xx/src/system_stm32f4xx.c ****   *         other parameters.
 255:/Users/josefvanniekerk/Projects/stm32f4-discovery/libraries/cmsis/st/stm32f4xx/src/system_stm32f4xx.c ****   *           
 256:/Users/josefvanniekerk/Projects/stm32f4-discovery/libraries/cmsis/st/stm32f4xx/src/system_stm32f4xx.c ****   * @note   Each time the core clock (HCLK) changes, this function must be called
 257:/Users/josefvanniekerk/Projects/stm32f4-discovery/libraries/cmsis/st/stm32f4xx/src/system_stm32f4xx.c ****   *         to update SystemCoreClock variable value. Otherwise, any configuration
 258:/Users/josefvanniekerk/Projects/stm32f4-discovery/libraries/cmsis/st/stm32f4xx/src/system_stm32f4xx.c ****   *         based on this variable will be incorrect.         
 259:/Users/josefvanniekerk/Projects/stm32f4-discovery/libraries/cmsis/st/stm32f4xx/src/system_stm32f4xx.c ****   *     
 260:/Users/josefvanniekerk/Projects/stm32f4-discovery/libraries/cmsis/st/stm32f4xx/src/system_stm32f4xx.c ****   * @note   - The system frequency computed by this function is not the real 
 261:/Users/josefvanniekerk/Projects/stm32f4-discovery/libraries/cmsis/st/stm32f4xx/src/system_stm32f4xx.c ****   *           frequency in the chip. It is calculated based on the predefined 
 262:/Users/josefvanniekerk/Projects/stm32f4-discovery/libraries/cmsis/st/stm32f4xx/src/system_stm32f4xx.c ****   *           constant and the selected clock source:
 263:/Users/josefvanniekerk/Projects/stm32f4-discovery/libraries/cmsis/st/stm32f4xx/src/system_stm32f4xx.c ****   *             
 264:/Users/josefvanniekerk/Projects/stm32f4-discovery/libraries/cmsis/st/stm32f4xx/src/system_stm32f4xx.c ****   *           - If SYSCLK source is HSI, SystemCoreClock will contain the HSI_VALUE(*)
 265:/Users/josefvanniekerk/Projects/stm32f4-discovery/libraries/cmsis/st/stm32f4xx/src/system_stm32f4xx.c ****   *                                              
 266:/Users/josefvanniekerk/Projects/stm32f4-discovery/libraries/cmsis/st/stm32f4xx/src/system_stm32f4xx.c ****   *           - If SYSCLK source is HSE, SystemCoreClock will contain the HSE_VALUE(**)
 267:/Users/josefvanniekerk/Projects/stm32f4-discovery/libraries/cmsis/st/stm32f4xx/src/system_stm32f4xx.c ****   *                          
 268:/Users/josefvanniekerk/Projects/stm32f4-discovery/libraries/cmsis/st/stm32f4xx/src/system_stm32f4xx.c ****   *           - If SYSCLK source is PLL, SystemCoreClock will contain the HSE_VALUE(**) 
 269:/Users/josefvanniekerk/Projects/stm32f4-discovery/libraries/cmsis/st/stm32f4xx/src/system_stm32f4xx.c ****   *             or HSI_VALUE(*) multiplied/divided by the PLL factors.
 270:/Users/josefvanniekerk/Projects/stm32f4-discovery/libraries/cmsis/st/stm32f4xx/src/system_stm32f4xx.c ****   *         
 271:/Users/josefvanniekerk/Projects/stm32f4-discovery/libraries/cmsis/st/stm32f4xx/src/system_stm32f4xx.c ****   *         (*) HSI_VALUE is a constant defined in stm32f4xx.h file (default value
 272:/Users/josefvanniekerk/Projects/stm32f4-discovery/libraries/cmsis/st/stm32f4xx/src/system_stm32f4xx.c ****   *             16 MHz) but the real value may vary depending on the variations
 273:/Users/josefvanniekerk/Projects/stm32f4-discovery/libraries/cmsis/st/stm32f4xx/src/system_stm32f4xx.c ****   *             in voltage and temperature.   
 274:/Users/josefvanniekerk/Projects/stm32f4-discovery/libraries/cmsis/st/stm32f4xx/src/system_stm32f4xx.c ****   *    
 275:/Users/josefvanniekerk/Projects/stm32f4-discovery/libraries/cmsis/st/stm32f4xx/src/system_stm32f4xx.c ****   *         (**) HSE_VALUE is a constant defined in stm32f4xx.h file (default value
 276:/Users/josefvanniekerk/Projects/stm32f4-discovery/libraries/cmsis/st/stm32f4xx/src/system_stm32f4xx.c ****   *              25 MHz), user has to ensure that HSE_VALUE is same as the real
 277:/Users/josefvanniekerk/Projects/stm32f4-discovery/libraries/cmsis/st/stm32f4xx/src/system_stm32f4xx.c ****   *              frequency of the crystal used. Otherwise, this function may
 278:/Users/josefvanniekerk/Projects/stm32f4-discovery/libraries/cmsis/st/stm32f4xx/src/system_stm32f4xx.c ****   *              have wrong result.
 279:/Users/josefvanniekerk/Projects/stm32f4-discovery/libraries/cmsis/st/stm32f4xx/src/system_stm32f4xx.c ****   *                
 280:/Users/josefvanniekerk/Projects/stm32f4-discovery/libraries/cmsis/st/stm32f4xx/src/system_stm32f4xx.c ****   *         - The result of this function could be not correct when using fractional
 281:/Users/josefvanniekerk/Projects/stm32f4-discovery/libraries/cmsis/st/stm32f4xx/src/system_stm32f4xx.c ****   *           value for HSE crystal.
 282:/Users/josefvanniekerk/Projects/stm32f4-discovery/libraries/cmsis/st/stm32f4xx/src/system_stm32f4xx.c ****   *     
 283:/Users/josefvanniekerk/Projects/stm32f4-discovery/libraries/cmsis/st/stm32f4xx/src/system_stm32f4xx.c ****   * @param  None
 284:/Users/josefvanniekerk/Projects/stm32f4-discovery/libraries/cmsis/st/stm32f4xx/src/system_stm32f4xx.c ****   * @retval None
 285:/Users/josefvanniekerk/Projects/stm32f4-discovery/libraries/cmsis/st/stm32f4xx/src/system_stm32f4xx.c ****   */
 286:/Users/josefvanniekerk/Projects/stm32f4-discovery/libraries/cmsis/st/stm32f4xx/src/system_stm32f4xx.c **** void SystemCoreClockUpdate(void)
 287:/Users/josefvanniekerk/Projects/stm32f4-discovery/libraries/cmsis/st/stm32f4xx/src/system_stm32f4xx.c **** {
 127              		.loc 1 287 0
 128              		.cfi_startproc
 129              		@ args = 0, pretend = 0, frame = 24
 130              		@ frame_needed = 1, uses_anonymous_args = 0
 131              		@ link register save eliminated.
 132 0094 80B4     		push	{r7}
 133              	.LCFI2:
 134              		.cfi_def_cfa_offset 4
 135              		.cfi_offset 7, -4
 136 0096 87B0     		sub	sp, sp, #28
 137              	.LCFI3:
 138              		.cfi_def_cfa_offset 32
 139 0098 00AF     		add	r7, sp, #0
 140              	.LCFI4:
 141              		.cfi_def_cfa_register 7
 288:/Users/josefvanniekerk/Projects/stm32f4-discovery/libraries/cmsis/st/stm32f4xx/src/system_stm32f4xx.c ****   uint32_t tmp = 0, pllvco = 0, pllp = 2, pllsource = 0, pllm = 2;
 142              		.loc 1 288 0
 143 009a 4FF00003 		mov	r3, #0
 144 009e 3B61     		str	r3, [r7, #16]
 145 00a0 4FF00003 		mov	r3, #0
 146 00a4 7B61     		str	r3, [r7, #20]
 147 00a6 4FF00203 		mov	r3, #2
 148 00aa FB60     		str	r3, [r7, #12]
 149 00ac 4FF00003 		mov	r3, #0
 150 00b0 BB60     		str	r3, [r7, #8]
 151 00b2 4FF00203 		mov	r3, #2
 152 00b6 7B60     		str	r3, [r7, #4]
 289:/Users/josefvanniekerk/Projects/stm32f4-discovery/libraries/cmsis/st/stm32f4xx/src/system_stm32f4xx.c ****   
 290:/Users/josefvanniekerk/Projects/stm32f4-discovery/libraries/cmsis/st/stm32f4xx/src/system_stm32f4xx.c ****   /* Get SYSCLK source -------------------------------------------------------*/
 291:/Users/josefvanniekerk/Projects/stm32f4-discovery/libraries/cmsis/st/stm32f4xx/src/system_stm32f4xx.c ****   tmp = RCC->CFGR & RCC_CFGR_SWS;
 153              		.loc 1 291 0
 154 00b8 4FF46053 		mov	r3, #14336
 155 00bc C4F20203 		movt	r3, 16386
 156 00c0 9B68     		ldr	r3, [r3, #8]
 157 00c2 03F00C03 		and	r3, r3, #12
 158 00c6 3B61     		str	r3, [r7, #16]
 292:/Users/josefvanniekerk/Projects/stm32f4-discovery/libraries/cmsis/st/stm32f4xx/src/system_stm32f4xx.c **** 
 293:/Users/josefvanniekerk/Projects/stm32f4-discovery/libraries/cmsis/st/stm32f4xx/src/system_stm32f4xx.c ****   switch (tmp)
 159              		.loc 1 293 0
 160 00c8 3B69     		ldr	r3, [r7, #16]
 161 00ca 042B     		cmp	r3, #4
 162 00cc 0DD0     		beq	.L5
 163 00ce 082B     		cmp	r3, #8
 164 00d0 15D0     		beq	.L6
 165 00d2 002B     		cmp	r3, #0
 166 00d4 69D1     		bne	.L10
 167              	.L4:
 294:/Users/josefvanniekerk/Projects/stm32f4-discovery/libraries/cmsis/st/stm32f4xx/src/system_stm32f4xx.c ****   {
 295:/Users/josefvanniekerk/Projects/stm32f4-discovery/libraries/cmsis/st/stm32f4xx/src/system_stm32f4xx.c ****     case 0x00:  /* HSI used as system clock source */
 296:/Users/josefvanniekerk/Projects/stm32f4-discovery/libraries/cmsis/st/stm32f4xx/src/system_stm32f4xx.c ****       SystemCoreClock = HSI_VALUE;
 168              		.loc 1 296 0
 169 00d6 40F20003 		movw	r3, #:lower16:SystemCoreClock
 170 00da C0F20003 		movt	r3, #:upper16:SystemCoreClock
 171 00de 4FF41052 		mov	r2, #9216
 172 00e2 C0F2F402 		movt	r2, 244
 173 00e6 1A60     		str	r2, [r3, #0]
 297:/Users/josefvanniekerk/Projects/stm32f4-discovery/libraries/cmsis/st/stm32f4xx/src/system_stm32f4xx.c ****       break;
 174              		.loc 1 297 0
 175 00e8 69E0     		b	.L7
 176              	.L5:
 298:/Users/josefvanniekerk/Projects/stm32f4-discovery/libraries/cmsis/st/stm32f4xx/src/system_stm32f4xx.c ****     case 0x04:  /* HSE used as system clock source */
 299:/Users/josefvanniekerk/Projects/stm32f4-discovery/libraries/cmsis/st/stm32f4xx/src/system_stm32f4xx.c ****       SystemCoreClock = HSE_VALUE;
 177              		.loc 1 299 0
 178 00ea 40F20003 		movw	r3, #:lower16:SystemCoreClock
 179 00ee C0F20003 		movt	r3, #:upper16:SystemCoreClock
 180 00f2 4FF49052 		mov	r2, #4608
 181 00f6 C0F27A02 		movt	r2, 122
 182 00fa 1A60     		str	r2, [r3, #0]
 300:/Users/josefvanniekerk/Projects/stm32f4-discovery/libraries/cmsis/st/stm32f4xx/src/system_stm32f4xx.c ****       break;
 183              		.loc 1 300 0
 184 00fc 5FE0     		b	.L7
 185              	.L6:
 301:/Users/josefvanniekerk/Projects/stm32f4-discovery/libraries/cmsis/st/stm32f4xx/src/system_stm32f4xx.c ****     case 0x08:  /* PLL used as system clock source */
 302:/Users/josefvanniekerk/Projects/stm32f4-discovery/libraries/cmsis/st/stm32f4xx/src/system_stm32f4xx.c **** 
 303:/Users/josefvanniekerk/Projects/stm32f4-discovery/libraries/cmsis/st/stm32f4xx/src/system_stm32f4xx.c ****       /* PLL_VCO = (HSE_VALUE or HSI_VALUE / PLL_M) * PLL_N
 304:/Users/josefvanniekerk/Projects/stm32f4-discovery/libraries/cmsis/st/stm32f4xx/src/system_stm32f4xx.c ****          SYSCLK = PLL_VCO / PLL_P
 305:/Users/josefvanniekerk/Projects/stm32f4-discovery/libraries/cmsis/st/stm32f4xx/src/system_stm32f4xx.c ****          */    
 306:/Users/josefvanniekerk/Projects/stm32f4-discovery/libraries/cmsis/st/stm32f4xx/src/system_stm32f4xx.c ****       pllsource = (RCC->PLLCFGR & RCC_PLLCFGR_PLLSRC) >> 22;
 186              		.loc 1 306 0
 187 00fe 4FF46053 		mov	r3, #14336
 188 0102 C4F20203 		movt	r3, 16386
 189 0106 5B68     		ldr	r3, [r3, #4]
 190 0108 03F48003 		and	r3, r3, #4194304
 191 010c 4FEA9353 		lsr	r3, r3, #22
 192 0110 BB60     		str	r3, [r7, #8]
 307:/Users/josefvanniekerk/Projects/stm32f4-discovery/libraries/cmsis/st/stm32f4xx/src/system_stm32f4xx.c ****       pllm = RCC->PLLCFGR & RCC_PLLCFGR_PLLM;
 193              		.loc 1 307 0
 194 0112 4FF46053 		mov	r3, #14336
 195 0116 C4F20203 		movt	r3, 16386
 196 011a 5B68     		ldr	r3, [r3, #4]
 197 011c 03F03F03 		and	r3, r3, #63
 198 0120 7B60     		str	r3, [r7, #4]
 308:/Users/josefvanniekerk/Projects/stm32f4-discovery/libraries/cmsis/st/stm32f4xx/src/system_stm32f4xx.c ****       
 309:/Users/josefvanniekerk/Projects/stm32f4-discovery/libraries/cmsis/st/stm32f4xx/src/system_stm32f4xx.c ****       if (pllsource != 0)
 199              		.loc 1 309 0
 200 0122 BB68     		ldr	r3, [r7, #8]
 201 0124 002B     		cmp	r3, #0
 202 0126 14D0     		beq	.L8
 310:/Users/josefvanniekerk/Projects/stm32f4-discovery/libraries/cmsis/st/stm32f4xx/src/system_stm32f4xx.c ****       {
 311:/Users/josefvanniekerk/Projects/stm32f4-discovery/libraries/cmsis/st/stm32f4xx/src/system_stm32f4xx.c ****         /* HSE used as PLL clock source */
 312:/Users/josefvanniekerk/Projects/stm32f4-discovery/libraries/cmsis/st/stm32f4xx/src/system_stm32f4xx.c ****         pllvco = (HSE_VALUE / pllm) * ((RCC->PLLCFGR & RCC_PLLCFGR_PLLN) >> 6);
 203              		.loc 1 312 0
 204 0128 4FF49053 		mov	r3, #4608
 205 012c C0F27A03 		movt	r3, 122
 206 0130 7A68     		ldr	r2, [r7, #4]
 207 0132 B3FBF2F2 		udiv	r2, r3, r2
 208 0136 4FF46053 		mov	r3, #14336
 209 013a C4F20203 		movt	r3, 16386
 210 013e 5968     		ldr	r1, [r3, #4]
 211 0140 47F6C073 		movw	r3, #32704
 212 0144 0B40     		ands	r3, r3, r1
 213 0146 4FEA9313 		lsr	r3, r3, #6
 214 014a 03FB02F3 		mul	r3, r3, r2
 215 014e 7B61     		str	r3, [r7, #20]
 216 0150 13E0     		b	.L9
 217              	.L8:
 313:/Users/josefvanniekerk/Projects/stm32f4-discovery/libraries/cmsis/st/stm32f4xx/src/system_stm32f4xx.c ****       }
 314:/Users/josefvanniekerk/Projects/stm32f4-discovery/libraries/cmsis/st/stm32f4xx/src/system_stm32f4xx.c ****       else
 315:/Users/josefvanniekerk/Projects/stm32f4-discovery/libraries/cmsis/st/stm32f4xx/src/system_stm32f4xx.c ****       {
 316:/Users/josefvanniekerk/Projects/stm32f4-discovery/libraries/cmsis/st/stm32f4xx/src/system_stm32f4xx.c ****         /* HSI used as PLL clock source */
 317:/Users/josefvanniekerk/Projects/stm32f4-discovery/libraries/cmsis/st/stm32f4xx/src/system_stm32f4xx.c ****         pllvco = (HSI_VALUE / pllm) * ((RCC->PLLCFGR & RCC_PLLCFGR_PLLN) >> 6);      
 218              		.loc 1 317 0
 219 0152 4FF41053 		mov	r3, #9216
 220 0156 C0F2F403 		movt	r3, 244
 221 015a 7A68     		ldr	r2, [r7, #4]
 222 015c B3FBF2F2 		udiv	r2, r3, r2
 223 0160 4FF46053 		mov	r3, #14336
 224 0164 C4F20203 		movt	r3, 16386
 225 0168 5968     		ldr	r1, [r3, #4]
 226 016a 47F6C073 		movw	r3, #32704
 227 016e 0B40     		ands	r3, r3, r1
 228 0170 4FEA9313 		lsr	r3, r3, #6
 229 0174 03FB02F3 		mul	r3, r3, r2
 230 0178 7B61     		str	r3, [r7, #20]
 231              	.L9:
 318:/Users/josefvanniekerk/Projects/stm32f4-discovery/libraries/cmsis/st/stm32f4xx/src/system_stm32f4xx.c ****       }
 319:/Users/josefvanniekerk/Projects/stm32f4-discovery/libraries/cmsis/st/stm32f4xx/src/system_stm32f4xx.c **** 
 320:/Users/josefvanniekerk/Projects/stm32f4-discovery/libraries/cmsis/st/stm32f4xx/src/system_stm32f4xx.c ****       pllp = (((RCC->PLLCFGR & RCC_PLLCFGR_PLLP) >>16) + 1 ) *2;
 232              		.loc 1 320 0
 233 017a 4FF46053 		mov	r3, #14336
 234 017e C4F20203 		movt	r3, 16386
 235 0182 5B68     		ldr	r3, [r3, #4]
 236 0184 03F44033 		and	r3, r3, #196608
 237 0188 4FEA1343 		lsr	r3, r3, #16
 238 018c 03F10103 		add	r3, r3, #1
 239 0190 4FEA4303 		lsl	r3, r3, #1
 240 0194 FB60     		str	r3, [r7, #12]
 321:/Users/josefvanniekerk/Projects/stm32f4-discovery/libraries/cmsis/st/stm32f4xx/src/system_stm32f4xx.c ****       SystemCoreClock = pllvco/pllp;
 241              		.loc 1 321 0
 242 0196 7A69     		ldr	r2, [r7, #20]
 243 0198 FB68     		ldr	r3, [r7, #12]
 244 019a B2FBF3F2 		udiv	r2, r2, r3
 245 019e 40F20003 		movw	r3, #:lower16:SystemCoreClock
 246 01a2 C0F20003 		movt	r3, #:upper16:SystemCoreClock
 247 01a6 1A60     		str	r2, [r3, #0]
 322:/Users/josefvanniekerk/Projects/stm32f4-discovery/libraries/cmsis/st/stm32f4xx/src/system_stm32f4xx.c ****       break;
 248              		.loc 1 322 0
 249 01a8 09E0     		b	.L7
 250              	.L10:
 323:/Users/josefvanniekerk/Projects/stm32f4-discovery/libraries/cmsis/st/stm32f4xx/src/system_stm32f4xx.c ****     default:
 324:/Users/josefvanniekerk/Projects/stm32f4-discovery/libraries/cmsis/st/stm32f4xx/src/system_stm32f4xx.c ****       SystemCoreClock = HSI_VALUE;
 251              		.loc 1 324 0
 252 01aa 40F20003 		movw	r3, #:lower16:SystemCoreClock
 253 01ae C0F20003 		movt	r3, #:upper16:SystemCoreClock
 254 01b2 4FF41052 		mov	r2, #9216
 255 01b6 C0F2F402 		movt	r2, 244
 256 01ba 1A60     		str	r2, [r3, #0]
 325:/Users/josefvanniekerk/Projects/stm32f4-discovery/libraries/cmsis/st/stm32f4xx/src/system_stm32f4xx.c ****       break;
 257              		.loc 1 325 0
 258 01bc 00BF     		nop
 259              	.L7:
 326:/Users/josefvanniekerk/Projects/stm32f4-discovery/libraries/cmsis/st/stm32f4xx/src/system_stm32f4xx.c ****   }
 327:/Users/josefvanniekerk/Projects/stm32f4-discovery/libraries/cmsis/st/stm32f4xx/src/system_stm32f4xx.c ****   /* Compute HCLK frequency --------------------------------------------------*/
 328:/Users/josefvanniekerk/Projects/stm32f4-discovery/libraries/cmsis/st/stm32f4xx/src/system_stm32f4xx.c ****   /* Get HCLK prescaler */
 329:/Users/josefvanniekerk/Projects/stm32f4-discovery/libraries/cmsis/st/stm32f4xx/src/system_stm32f4xx.c ****   tmp = AHBPrescTable[((RCC->CFGR & RCC_CFGR_HPRE) >> 4)];
 260              		.loc 1 329 0
 261 01be 4FF46053 		mov	r3, #14336
 262 01c2 C4F20203 		movt	r3, 16386
 263 01c6 9B68     		ldr	r3, [r3, #8]
 264 01c8 03F0F003 		and	r3, r3, #240
 265 01cc 4FEA1312 		lsr	r2, r3, #4
 266 01d0 40F20003 		movw	r3, #:lower16:AHBPrescTable
 267 01d4 C0F20003 		movt	r3, #:upper16:AHBPrescTable
 268 01d8 9B5C     		ldrb	r3, [r3, r2]
 269 01da DBB2     		uxtb	r3, r3
 270 01dc 3B61     		str	r3, [r7, #16]
 330:/Users/josefvanniekerk/Projects/stm32f4-discovery/libraries/cmsis/st/stm32f4xx/src/system_stm32f4xx.c ****   /* HCLK frequency */
 331:/Users/josefvanniekerk/Projects/stm32f4-discovery/libraries/cmsis/st/stm32f4xx/src/system_stm32f4xx.c ****   SystemCoreClock >>= tmp;
 271              		.loc 1 331 0
 272 01de 40F20003 		movw	r3, #:lower16:SystemCoreClock
 273 01e2 C0F20003 		movt	r3, #:upper16:SystemCoreClock
 274 01e6 1A68     		ldr	r2, [r3, #0]
 275 01e8 3B69     		ldr	r3, [r7, #16]
 276 01ea 22FA03F2 		lsr	r2, r2, r3
 277 01ee 40F20003 		movw	r3, #:lower16:SystemCoreClock
 278 01f2 C0F20003 		movt	r3, #:upper16:SystemCoreClock
 279 01f6 1A60     		str	r2, [r3, #0]
 332:/Users/josefvanniekerk/Projects/stm32f4-discovery/libraries/cmsis/st/stm32f4xx/src/system_stm32f4xx.c **** }
 280              		.loc 1 332 0
 281 01f8 07F11C07 		add	r7, r7, #28
 282 01fc BD46     		mov	sp, r7
 283 01fe 80BC     		pop	{r7}
 284 0200 7047     		bx	lr
 285              		.cfi_endproc
 286              	.LFE111:
 288 0202 00BF     		.align	2
 289              		.thumb
 290              		.thumb_func
 292              	SetSysClock:
 293              	.LFB112:
 333:/Users/josefvanniekerk/Projects/stm32f4-discovery/libraries/cmsis/st/stm32f4xx/src/system_stm32f4xx.c **** 
 334:/Users/josefvanniekerk/Projects/stm32f4-discovery/libraries/cmsis/st/stm32f4xx/src/system_stm32f4xx.c **** /**
 335:/Users/josefvanniekerk/Projects/stm32f4-discovery/libraries/cmsis/st/stm32f4xx/src/system_stm32f4xx.c ****   * @brief  Configures the System clock source, PLL Multiplier and Divider factors, 
 336:/Users/josefvanniekerk/Projects/stm32f4-discovery/libraries/cmsis/st/stm32f4xx/src/system_stm32f4xx.c ****   *         AHB/APBx prescalers and Flash settings
 337:/Users/josefvanniekerk/Projects/stm32f4-discovery/libraries/cmsis/st/stm32f4xx/src/system_stm32f4xx.c ****   * @Note   This function should be called only once the RCC clock configuration  
 338:/Users/josefvanniekerk/Projects/stm32f4-discovery/libraries/cmsis/st/stm32f4xx/src/system_stm32f4xx.c ****   *         is reset to the default reset state (done in SystemInit() function).   
 339:/Users/josefvanniekerk/Projects/stm32f4-discovery/libraries/cmsis/st/stm32f4xx/src/system_stm32f4xx.c ****   * @param  None
 340:/Users/josefvanniekerk/Projects/stm32f4-discovery/libraries/cmsis/st/stm32f4xx/src/system_stm32f4xx.c ****   * @retval None
 341:/Users/josefvanniekerk/Projects/stm32f4-discovery/libraries/cmsis/st/stm32f4xx/src/system_stm32f4xx.c ****   */
 342:/Users/josefvanniekerk/Projects/stm32f4-discovery/libraries/cmsis/st/stm32f4xx/src/system_stm32f4xx.c **** static void SetSysClock(void)
 343:/Users/josefvanniekerk/Projects/stm32f4-discovery/libraries/cmsis/st/stm32f4xx/src/system_stm32f4xx.c **** {
 294              		.loc 1 343 0
 295              		.cfi_startproc
 296              		@ args = 0, pretend = 0, frame = 8
 297              		@ frame_needed = 1, uses_anonymous_args = 0
 298              		@ link register save eliminated.
 299 0204 80B4     		push	{r7}
 300              	.LCFI5:
 301              		.cfi_def_cfa_offset 4
 302              		.cfi_offset 7, -4
 303 0206 83B0     		sub	sp, sp, #12
 304              	.LCFI6:
 305              		.cfi_def_cfa_offset 16
 306 0208 00AF     		add	r7, sp, #0
 307              	.LCFI7:
 308              		.cfi_def_cfa_register 7
 344:/Users/josefvanniekerk/Projects/stm32f4-discovery/libraries/cmsis/st/stm32f4xx/src/system_stm32f4xx.c **** /******************************************************************************/
 345:/Users/josefvanniekerk/Projects/stm32f4-discovery/libraries/cmsis/st/stm32f4xx/src/system_stm32f4xx.c **** /*            PLL (clocked by HSE) used as System clock source                */
 346:/Users/josefvanniekerk/Projects/stm32f4-discovery/libraries/cmsis/st/stm32f4xx/src/system_stm32f4xx.c **** /******************************************************************************/
 347:/Users/josefvanniekerk/Projects/stm32f4-discovery/libraries/cmsis/st/stm32f4xx/src/system_stm32f4xx.c ****   __IO uint32_t StartUpCounter = 0, HSEStatus = 0;
 309              		.loc 1 347 0
 310 020a 4FF00003 		mov	r3, #0
 311 020e 7B60     		str	r3, [r7, #4]
 312 0210 4FF00003 		mov	r3, #0
 313 0214 3B60     		str	r3, [r7, #0]
 348:/Users/josefvanniekerk/Projects/stm32f4-discovery/libraries/cmsis/st/stm32f4xx/src/system_stm32f4xx.c ****   
 349:/Users/josefvanniekerk/Projects/stm32f4-discovery/libraries/cmsis/st/stm32f4xx/src/system_stm32f4xx.c ****   /* Enable HSE */
 350:/Users/josefvanniekerk/Projects/stm32f4-discovery/libraries/cmsis/st/stm32f4xx/src/system_stm32f4xx.c ****   RCC->CR |= ((uint32_t)RCC_CR_HSEON);
 314              		.loc 1 350 0
 315 0216 4FF46053 		mov	r3, #14336
 316 021a C4F20203 		movt	r3, 16386
 317 021e 4FF46052 		mov	r2, #14336
 318 0222 C4F20202 		movt	r2, 16386
 319 0226 1268     		ldr	r2, [r2, #0]
 320 0228 42F48032 		orr	r2, r2, #65536
 321 022c 1A60     		str	r2, [r3, #0]
 322              	.L13:
 351:/Users/josefvanniekerk/Projects/stm32f4-discovery/libraries/cmsis/st/stm32f4xx/src/system_stm32f4xx.c ****  
 352:/Users/josefvanniekerk/Projects/stm32f4-discovery/libraries/cmsis/st/stm32f4xx/src/system_stm32f4xx.c ****   /* Wait till HSE is ready and if Time out is reached exit */
 353:/Users/josefvanniekerk/Projects/stm32f4-discovery/libraries/cmsis/st/stm32f4xx/src/system_stm32f4xx.c ****   do
 354:/Users/josefvanniekerk/Projects/stm32f4-discovery/libraries/cmsis/st/stm32f4xx/src/system_stm32f4xx.c ****   {
 355:/Users/josefvanniekerk/Projects/stm32f4-discovery/libraries/cmsis/st/stm32f4xx/src/system_stm32f4xx.c ****     HSEStatus = RCC->CR & RCC_CR_HSERDY;
 323              		.loc 1 355 0 discriminator 1
 324 022e 4FF46053 		mov	r3, #14336
 325 0232 C4F20203 		movt	r3, 16386
 326 0236 1B68     		ldr	r3, [r3, #0]
 327 0238 03F40033 		and	r3, r3, #131072
 328 023c 3B60     		str	r3, [r7, #0]
 356:/Users/josefvanniekerk/Projects/stm32f4-discovery/libraries/cmsis/st/stm32f4xx/src/system_stm32f4xx.c ****     StartUpCounter++;
 329              		.loc 1 356 0 discriminator 1
 330 023e 7B68     		ldr	r3, [r7, #4]
 331 0240 03F10103 		add	r3, r3, #1
 332 0244 7B60     		str	r3, [r7, #4]
 357:/Users/josefvanniekerk/Projects/stm32f4-discovery/libraries/cmsis/st/stm32f4xx/src/system_stm32f4xx.c ****   } while((HSEStatus == 0) && (StartUpCounter != HSE_STARTUP_TIMEOUT));
 333              		.loc 1 357 0 discriminator 1
 334 0246 3B68     		ldr	r3, [r7, #0]
 335 0248 002B     		cmp	r3, #0
 336 024a 03D1     		bne	.L12
 337 024c 7B68     		ldr	r3, [r7, #4]
 338 024e B3F5A06F 		cmp	r3, #1280
 339 0252 ECD1     		bne	.L13
 340              	.L12:
 358:/Users/josefvanniekerk/Projects/stm32f4-discovery/libraries/cmsis/st/stm32f4xx/src/system_stm32f4xx.c **** 
 359:/Users/josefvanniekerk/Projects/stm32f4-discovery/libraries/cmsis/st/stm32f4xx/src/system_stm32f4xx.c ****   if ((RCC->CR & RCC_CR_HSERDY) != RESET)
 341              		.loc 1 359 0
 342 0254 4FF46053 		mov	r3, #14336
 343 0258 C4F20203 		movt	r3, 16386
 344 025c 1B68     		ldr	r3, [r3, #0]
 345 025e 03F40033 		and	r3, r3, #131072
 346 0262 002B     		cmp	r3, #0
 347 0264 03D0     		beq	.L14
 360:/Users/josefvanniekerk/Projects/stm32f4-discovery/libraries/cmsis/st/stm32f4xx/src/system_stm32f4xx.c ****   {
 361:/Users/josefvanniekerk/Projects/stm32f4-discovery/libraries/cmsis/st/stm32f4xx/src/system_stm32f4xx.c ****     HSEStatus = (uint32_t)0x01;
 348              		.loc 1 361 0
 349 0266 4FF00103 		mov	r3, #1
 350 026a 3B60     		str	r3, [r7, #0]
 351 026c 02E0     		b	.L15
 352              	.L14:
 362:/Users/josefvanniekerk/Projects/stm32f4-discovery/libraries/cmsis/st/stm32f4xx/src/system_stm32f4xx.c ****   }
 363:/Users/josefvanniekerk/Projects/stm32f4-discovery/libraries/cmsis/st/stm32f4xx/src/system_stm32f4xx.c ****   else
 364:/Users/josefvanniekerk/Projects/stm32f4-discovery/libraries/cmsis/st/stm32f4xx/src/system_stm32f4xx.c ****   {
 365:/Users/josefvanniekerk/Projects/stm32f4-discovery/libraries/cmsis/st/stm32f4xx/src/system_stm32f4xx.c ****     HSEStatus = (uint32_t)0x00;
 353              		.loc 1 365 0
 354 026e 4FF00003 		mov	r3, #0
 355 0272 3B60     		str	r3, [r7, #0]
 356              	.L15:
 366:/Users/josefvanniekerk/Projects/stm32f4-discovery/libraries/cmsis/st/stm32f4xx/src/system_stm32f4xx.c ****   }
 367:/Users/josefvanniekerk/Projects/stm32f4-discovery/libraries/cmsis/st/stm32f4xx/src/system_stm32f4xx.c **** 
 368:/Users/josefvanniekerk/Projects/stm32f4-discovery/libraries/cmsis/st/stm32f4xx/src/system_stm32f4xx.c ****   if (HSEStatus == (uint32_t)0x01)
 357              		.loc 1 368 0
 358 0274 3B68     		ldr	r3, [r7, #0]
 359 0276 012B     		cmp	r3, #1
 360 0278 40F08280 		bne	.L11
 369:/Users/josefvanniekerk/Projects/stm32f4-discovery/libraries/cmsis/st/stm32f4xx/src/system_stm32f4xx.c ****   {
 370:/Users/josefvanniekerk/Projects/stm32f4-discovery/libraries/cmsis/st/stm32f4xx/src/system_stm32f4xx.c ****     /* Select regulator voltage output Scale 1 mode, System frequency up to 168 MHz */
 371:/Users/josefvanniekerk/Projects/stm32f4-discovery/libraries/cmsis/st/stm32f4xx/src/system_stm32f4xx.c ****     RCC->APB1ENR |= RCC_APB1ENR_PWREN;
 361              		.loc 1 371 0
 362 027c 4FF46053 		mov	r3, #14336
 363 0280 C4F20203 		movt	r3, 16386
 364 0284 4FF46052 		mov	r2, #14336
 365 0288 C4F20202 		movt	r2, 16386
 366 028c 126C     		ldr	r2, [r2, #64]
 367 028e 42F08052 		orr	r2, r2, #268435456
 368 0292 1A64     		str	r2, [r3, #64]
 372:/Users/josefvanniekerk/Projects/stm32f4-discovery/libraries/cmsis/st/stm32f4xx/src/system_stm32f4xx.c ****     PWR->CR |= PWR_CR_VOS;
 369              		.loc 1 372 0
 370 0294 4FF4E043 		mov	r3, #28672
 371 0298 C4F20003 		movt	r3, 16384
 372 029c 4FF4E042 		mov	r2, #28672
 373 02a0 C4F20002 		movt	r2, 16384
 374 02a4 1268     		ldr	r2, [r2, #0]
 375 02a6 42F48042 		orr	r2, r2, #16384
 376 02aa 1A60     		str	r2, [r3, #0]
 373:/Users/josefvanniekerk/Projects/stm32f4-discovery/libraries/cmsis/st/stm32f4xx/src/system_stm32f4xx.c **** 
 374:/Users/josefvanniekerk/Projects/stm32f4-discovery/libraries/cmsis/st/stm32f4xx/src/system_stm32f4xx.c ****     /* HCLK = SYSCLK / 1*/
 375:/Users/josefvanniekerk/Projects/stm32f4-discovery/libraries/cmsis/st/stm32f4xx/src/system_stm32f4xx.c ****     RCC->CFGR |= RCC_CFGR_HPRE_DIV1;
 377              		.loc 1 375 0
 378 02ac 4FF46053 		mov	r3, #14336
 379 02b0 C4F20203 		movt	r3, 16386
 380 02b4 4FF46052 		mov	r2, #14336
 381 02b8 C4F20202 		movt	r2, 16386
 382 02bc 9268     		ldr	r2, [r2, #8]
 383 02be 9A60     		str	r2, [r3, #8]
 376:/Users/josefvanniekerk/Projects/stm32f4-discovery/libraries/cmsis/st/stm32f4xx/src/system_stm32f4xx.c ****       
 377:/Users/josefvanniekerk/Projects/stm32f4-discovery/libraries/cmsis/st/stm32f4xx/src/system_stm32f4xx.c ****     /* PCLK2 = HCLK / 2*/
 378:/Users/josefvanniekerk/Projects/stm32f4-discovery/libraries/cmsis/st/stm32f4xx/src/system_stm32f4xx.c ****     RCC->CFGR |= RCC_CFGR_PPRE2_DIV2;
 384              		.loc 1 378 0
 385 02c0 4FF46053 		mov	r3, #14336
 386 02c4 C4F20203 		movt	r3, 16386
 387 02c8 4FF46052 		mov	r2, #14336
 388 02cc C4F20202 		movt	r2, 16386
 389 02d0 9268     		ldr	r2, [r2, #8]
 390 02d2 42F40042 		orr	r2, r2, #32768
 391 02d6 9A60     		str	r2, [r3, #8]
 379:/Users/josefvanniekerk/Projects/stm32f4-discovery/libraries/cmsis/st/stm32f4xx/src/system_stm32f4xx.c ****     
 380:/Users/josefvanniekerk/Projects/stm32f4-discovery/libraries/cmsis/st/stm32f4xx/src/system_stm32f4xx.c ****     /* PCLK1 = HCLK / 4*/
 381:/Users/josefvanniekerk/Projects/stm32f4-discovery/libraries/cmsis/st/stm32f4xx/src/system_stm32f4xx.c ****     RCC->CFGR |= RCC_CFGR_PPRE1_DIV4;
 392              		.loc 1 381 0
 393 02d8 4FF46053 		mov	r3, #14336
 394 02dc C4F20203 		movt	r3, 16386
 395 02e0 4FF46052 		mov	r2, #14336
 396 02e4 C4F20202 		movt	r2, 16386
 397 02e8 9268     		ldr	r2, [r2, #8]
 398 02ea 42F4A052 		orr	r2, r2, #5120
 399 02ee 9A60     		str	r2, [r3, #8]
 382:/Users/josefvanniekerk/Projects/stm32f4-discovery/libraries/cmsis/st/stm32f4xx/src/system_stm32f4xx.c **** 
 383:/Users/josefvanniekerk/Projects/stm32f4-discovery/libraries/cmsis/st/stm32f4xx/src/system_stm32f4xx.c ****     /* Configure the main PLL */
 384:/Users/josefvanniekerk/Projects/stm32f4-discovery/libraries/cmsis/st/stm32f4xx/src/system_stm32f4xx.c ****     RCC->PLLCFGR = PLL_M | (PLL_N << 6) | (((PLL_P >> 1) -1) << 16) |
 400              		.loc 1 384 0
 401 02f0 4FF46053 		mov	r3, #14336
 402 02f4 C4F20203 		movt	r3, 16386
 403 02f8 45F21942 		movw	r2, #21529
 404 02fc C0F24072 		movt	r2, 1856
 405 0300 5A60     		str	r2, [r3, #4]
 385:/Users/josefvanniekerk/Projects/stm32f4-discovery/libraries/cmsis/st/stm32f4xx/src/system_stm32f4xx.c ****                    (RCC_PLLCFGR_PLLSRC_HSE) | (PLL_Q << 24);
 386:/Users/josefvanniekerk/Projects/stm32f4-discovery/libraries/cmsis/st/stm32f4xx/src/system_stm32f4xx.c **** 
 387:/Users/josefvanniekerk/Projects/stm32f4-discovery/libraries/cmsis/st/stm32f4xx/src/system_stm32f4xx.c ****     /* Enable the main PLL */
 388:/Users/josefvanniekerk/Projects/stm32f4-discovery/libraries/cmsis/st/stm32f4xx/src/system_stm32f4xx.c ****     RCC->CR |= RCC_CR_PLLON;
 406              		.loc 1 388 0
 407 0302 4FF46053 		mov	r3, #14336
 408 0306 C4F20203 		movt	r3, 16386
 409 030a 4FF46052 		mov	r2, #14336
 410 030e C4F20202 		movt	r2, 16386
 411 0312 1268     		ldr	r2, [r2, #0]
 412 0314 42F08072 		orr	r2, r2, #16777216
 413 0318 1A60     		str	r2, [r3, #0]
 389:/Users/josefvanniekerk/Projects/stm32f4-discovery/libraries/cmsis/st/stm32f4xx/src/system_stm32f4xx.c **** 
 390:/Users/josefvanniekerk/Projects/stm32f4-discovery/libraries/cmsis/st/stm32f4xx/src/system_stm32f4xx.c ****     /* Wait till the main PLL is ready */
 391:/Users/josefvanniekerk/Projects/stm32f4-discovery/libraries/cmsis/st/stm32f4xx/src/system_stm32f4xx.c ****     while((RCC->CR & RCC_CR_PLLRDY) == 0)
 414              		.loc 1 391 0
 415 031a 00BF     		nop
 416              	.L17:
 417              		.loc 1 391 0 is_stmt 0 discriminator 1
 418 031c 4FF46053 		mov	r3, #14336
 419 0320 C4F20203 		movt	r3, 16386
 420 0324 1B68     		ldr	r3, [r3, #0]
 421 0326 03F00073 		and	r3, r3, #33554432
 422 032a 002B     		cmp	r3, #0
 423 032c F6D0     		beq	.L17
 392:/Users/josefvanniekerk/Projects/stm32f4-discovery/libraries/cmsis/st/stm32f4xx/src/system_stm32f4xx.c ****     {
 393:/Users/josefvanniekerk/Projects/stm32f4-discovery/libraries/cmsis/st/stm32f4xx/src/system_stm32f4xx.c ****     }
 394:/Users/josefvanniekerk/Projects/stm32f4-discovery/libraries/cmsis/st/stm32f4xx/src/system_stm32f4xx.c ****    
 395:/Users/josefvanniekerk/Projects/stm32f4-discovery/libraries/cmsis/st/stm32f4xx/src/system_stm32f4xx.c ****     /* Configure Flash prefetch, Instruction cache, Data cache and wait state */
 396:/Users/josefvanniekerk/Projects/stm32f4-discovery/libraries/cmsis/st/stm32f4xx/src/system_stm32f4xx.c ****     FLASH->ACR = FLASH_ACR_ICEN |FLASH_ACR_DCEN |FLASH_ACR_LATENCY_5WS;
 424              		.loc 1 396 0 is_stmt 1
 425 032e 4FF47053 		mov	r3, #15360
 426 0332 C4F20203 		movt	r3, 16386
 427 0336 40F20562 		movw	r2, #1541
 428 033a 1A60     		str	r2, [r3, #0]
 397:/Users/josefvanniekerk/Projects/stm32f4-discovery/libraries/cmsis/st/stm32f4xx/src/system_stm32f4xx.c **** 
 398:/Users/josefvanniekerk/Projects/stm32f4-discovery/libraries/cmsis/st/stm32f4xx/src/system_stm32f4xx.c ****     /* Select the main PLL as system clock source */
 399:/Users/josefvanniekerk/Projects/stm32f4-discovery/libraries/cmsis/st/stm32f4xx/src/system_stm32f4xx.c ****     RCC->CFGR &= (uint32_t)((uint32_t)~(RCC_CFGR_SW));
 429              		.loc 1 399 0
 430 033c 4FF46053 		mov	r3, #14336
 431 0340 C4F20203 		movt	r3, 16386
 432 0344 4FF46052 		mov	r2, #14336
 433 0348 C4F20202 		movt	r2, 16386
 434 034c 9268     		ldr	r2, [r2, #8]
 435 034e 22F00302 		bic	r2, r2, #3
 436 0352 9A60     		str	r2, [r3, #8]
 400:/Users/josefvanniekerk/Projects/stm32f4-discovery/libraries/cmsis/st/stm32f4xx/src/system_stm32f4xx.c ****     RCC->CFGR |= RCC_CFGR_SW_PLL;
 437              		.loc 1 400 0
 438 0354 4FF46053 		mov	r3, #14336
 439 0358 C4F20203 		movt	r3, 16386
 440 035c 4FF46052 		mov	r2, #14336
 441 0360 C4F20202 		movt	r2, 16386
 442 0364 9268     		ldr	r2, [r2, #8]
 443 0366 42F00202 		orr	r2, r2, #2
 444 036a 9A60     		str	r2, [r3, #8]
 401:/Users/josefvanniekerk/Projects/stm32f4-discovery/libraries/cmsis/st/stm32f4xx/src/system_stm32f4xx.c **** 
 402:/Users/josefvanniekerk/Projects/stm32f4-discovery/libraries/cmsis/st/stm32f4xx/src/system_stm32f4xx.c ****     /* Wait till the main PLL is used as system clock source */
 403:/Users/josefvanniekerk/Projects/stm32f4-discovery/libraries/cmsis/st/stm32f4xx/src/system_stm32f4xx.c ****     while ((RCC->CFGR & (uint32_t)RCC_CFGR_SWS ) != RCC_CFGR_SWS_PLL);
 445              		.loc 1 403 0
 446 036c 00BF     		nop
 447              	.L18:
 448              		.loc 1 403 0 is_stmt 0 discriminator 1
 449 036e 4FF46053 		mov	r3, #14336
 450 0372 C4F20203 		movt	r3, 16386
 451 0376 9B68     		ldr	r3, [r3, #8]
 452 0378 03F00C03 		and	r3, r3, #12
 453 037c 082B     		cmp	r3, #8
 454 037e F6D1     		bne	.L18
 455              	.L11:
 404:/Users/josefvanniekerk/Projects/stm32f4-discovery/libraries/cmsis/st/stm32f4xx/src/system_stm32f4xx.c ****     {
 405:/Users/josefvanniekerk/Projects/stm32f4-discovery/libraries/cmsis/st/stm32f4xx/src/system_stm32f4xx.c ****     }
 406:/Users/josefvanniekerk/Projects/stm32f4-discovery/libraries/cmsis/st/stm32f4xx/src/system_stm32f4xx.c ****   }
 407:/Users/josefvanniekerk/Projects/stm32f4-discovery/libraries/cmsis/st/stm32f4xx/src/system_stm32f4xx.c ****   else
 408:/Users/josefvanniekerk/Projects/stm32f4-discovery/libraries/cmsis/st/stm32f4xx/src/system_stm32f4xx.c ****   { /* If HSE fails to start-up, the application will have wrong clock
 409:/Users/josefvanniekerk/Projects/stm32f4-discovery/libraries/cmsis/st/stm32f4xx/src/system_stm32f4xx.c ****          configuration. User can add here some code to deal with this error */
 410:/Users/josefvanniekerk/Projects/stm32f4-discovery/libraries/cmsis/st/stm32f4xx/src/system_stm32f4xx.c ****   }
 411:/Users/josefvanniekerk/Projects/stm32f4-discovery/libraries/cmsis/st/stm32f4xx/src/system_stm32f4xx.c **** 
 412:/Users/josefvanniekerk/Projects/stm32f4-discovery/libraries/cmsis/st/stm32f4xx/src/system_stm32f4xx.c **** }
 456              		.loc 1 412 0 is_stmt 1
 457 0380 07F10C07 		add	r7, r7, #12
 458 0384 BD46     		mov	sp, r7
 459 0386 80BC     		pop	{r7}
 460 0388 7047     		bx	lr
 461              		.cfi_endproc
 462              	.LFE112:
 464              	.Letext0:
 465              		.file 2 "/Users/josefvanniekerk/Developer/Cross/arm-cs-tools-2012.03-56-e3f4013-20130305/lib/gcc/a
 466              		.file 3 "/Users/josefvanniekerk/Projects/stm32f4-discovery/projects/demonstration/../../libraries/
 467              		.file 4 "/Users/josefvanniekerk/Projects/stm32f4-discovery/projects/demonstration/../../libraries/